
STM32F401VE GPIO drivers.elf:     file format elf32-littlearm

Sections:
Idx Name          Size      VMA       LMA       File off  Algn
  0 .isr_vector   00000194  08000000  08000000  00001000  2**0
                  CONTENTS, ALLOC, LOAD, READONLY, DATA
  1 .text         00001af4  08000194  08000194  00001194  2**2
                  CONTENTS, ALLOC, LOAD, READONLY, CODE
  2 .rodata       00000000  08001c88  08001c90  00002c90  2**0
                  CONTENTS, ALLOC, LOAD, DATA
  3 .ARM.extab    00000000  08001c88  08001c88  00002c90  2**0
                  CONTENTS
  4 .ARM          00000000  08001c88  08001c88  00002c90  2**0
                  CONTENTS
  5 .preinit_array 00000000  08001c88  08001c90  00002c90  2**0
                  CONTENTS, ALLOC, LOAD, DATA
  6 .init_array   00000004  08001c88  08001c88  00002c88  2**2
                  CONTENTS, ALLOC, LOAD, READONLY, DATA
  7 .fini_array   00000004  08001c8c  08001c8c  00002c8c  2**2
                  CONTENTS, ALLOC, LOAD, READONLY, DATA
  8 .data         00000000  20000000  20000000  00002c90  2**0
                  CONTENTS, ALLOC, LOAD, DATA
  9 .bss          0000001c  20000000  08001c90  00003000  2**2
                  ALLOC
 10 ._user_heap_stack 00000604  2000001c  08001c90  0000301c  2**0
                  ALLOC
 11 .ARM.attributes 00000030  00000000  00000000  00002c90  2**0
                  CONTENTS, READONLY
 12 .debug_info   000030d4  00000000  00000000  00002cc0  2**0
                  CONTENTS, READONLY, DEBUGGING, OCTETS
 13 .debug_abbrev 000008e1  00000000  00000000  00005d94  2**0
                  CONTENTS, READONLY, DEBUGGING, OCTETS
 14 .debug_aranges 000003b0  00000000  00000000  00006678  2**3
                  CONTENTS, READONLY, DEBUGGING, OCTETS
 15 .debug_rnglists 000002b0  00000000  00000000  00006a28  2**0
                  CONTENTS, READONLY, DEBUGGING, OCTETS
 16 .debug_macro  0000e650  00000000  00000000  00006cd8  2**0
                  CONTENTS, READONLY, DEBUGGING, OCTETS
 17 .debug_line   00002e89  00000000  00000000  00015328  2**0
                  CONTENTS, READONLY, DEBUGGING, OCTETS
 18 .debug_str    00052dcd  00000000  00000000  000181b1  2**0
                  CONTENTS, READONLY, DEBUGGING, OCTETS
 19 .comment      00000043  00000000  00000000  0006af7e  2**0
                  CONTENTS, READONLY
 20 .debug_frame  00000f38  00000000  00000000  0006afc4  2**2
                  CONTENTS, READONLY, DEBUGGING, OCTETS
 21 .debug_line_str 0000007e  00000000  00000000  0006befc  2**0
                  CONTENTS, READONLY, DEBUGGING, OCTETS

Disassembly of section .text:

08000194 <__do_global_dtors_aux>:
 8000194:	b510      	push	{r4, lr}
 8000196:	4c05      	ldr	r4, [pc, #20]	@ (80001ac <__do_global_dtors_aux+0x18>)
 8000198:	7823      	ldrb	r3, [r4, #0]
 800019a:	b933      	cbnz	r3, 80001aa <__do_global_dtors_aux+0x16>
 800019c:	4b04      	ldr	r3, [pc, #16]	@ (80001b0 <__do_global_dtors_aux+0x1c>)
 800019e:	b113      	cbz	r3, 80001a6 <__do_global_dtors_aux+0x12>
 80001a0:	4804      	ldr	r0, [pc, #16]	@ (80001b4 <__do_global_dtors_aux+0x20>)
 80001a2:	f3af 8000 	nop.w
 80001a6:	2301      	movs	r3, #1
 80001a8:	7023      	strb	r3, [r4, #0]
 80001aa:	bd10      	pop	{r4, pc}
 80001ac:	20000000 	.word	0x20000000
 80001b0:	00000000 	.word	0x00000000
 80001b4:	08001c70 	.word	0x08001c70

080001b8 <frame_dummy>:
 80001b8:	b508      	push	{r3, lr}
 80001ba:	4b03      	ldr	r3, [pc, #12]	@ (80001c8 <frame_dummy+0x10>)
 80001bc:	b11b      	cbz	r3, 80001c6 <frame_dummy+0xe>
 80001be:	4903      	ldr	r1, [pc, #12]	@ (80001cc <frame_dummy+0x14>)
 80001c0:	4803      	ldr	r0, [pc, #12]	@ (80001d0 <frame_dummy+0x18>)
 80001c2:	f3af 8000 	nop.w
 80001c6:	bd08      	pop	{r3, pc}
 80001c8:	00000000 	.word	0x00000000
 80001cc:	20000004 	.word	0x20000004
 80001d0:	08001c70 	.word	0x08001c70

080001d4 <smarthome_initialize>:
 */

#include <USART_smart_home.h>

void smarthome_initialize()
{
 80001d4:	b580      	push	{r7, lr}
 80001d6:	b0a4      	sub	sp, #144	@ 0x90
 80001d8:	af00      	add	r7, sp, #0
	RCC->AHB1ENR = RCC->AHB1ENR | 0x1;
 80001da:	4b8d      	ldr	r3, [pc, #564]	@ (8000410 <smarthome_initialize+0x23c>)
 80001dc:	6b1b      	ldr	r3, [r3, #48]	@ 0x30
 80001de:	4a8c      	ldr	r2, [pc, #560]	@ (8000410 <smarthome_initialize+0x23c>)
 80001e0:	f043 0301 	orr.w	r3, r3, #1
 80001e4:	6313      	str	r3, [r2, #48]	@ 0x30
	gpio_pin uart;
	uart.mode = GPIO_PIN_MODE_ALT_FUNCTION;
 80001e6:	2302      	movs	r3, #2
 80001e8:	663b      	str	r3, [r7, #96]	@ 0x60
	uart.alternate_function = GPIO_PIN_ALTERNATE_FUNCTION_AF7_USART1_2;
 80001ea:	2307      	movs	r3, #7
 80001ec:	673b      	str	r3, [r7, #112]	@ 0x70
	uart.pin = SMARTHOME_USART_TX;
 80001ee:	2309      	movs	r3, #9
 80001f0:	65fb      	str	r3, [r7, #92]	@ 0x5c
	gpio_init(GPIOA, &uart);
 80001f2:	f107 035c 	add.w	r3, r7, #92	@ 0x5c
 80001f6:	4619      	mov	r1, r3
 80001f8:	4886      	ldr	r0, [pc, #536]	@ (8000414 <smarthome_initialize+0x240>)
 80001fa:	f000 fc9b 	bl	8000b34 <gpio_init>
	uart.pin = SMARTHOME_USART_RX;
 80001fe:	230a      	movs	r3, #10
 8000200:	65fb      	str	r3, [r7, #92]	@ 0x5c
	gpio_init(GPIOA, &uart);
 8000202:	f107 035c 	add.w	r3, r7, #92	@ 0x5c
 8000206:	4619      	mov	r1, r3
 8000208:	4882      	ldr	r0, [pc, #520]	@ (8000414 <smarthome_initialize+0x240>)
 800020a:	f000 fc93 	bl	8000b34 <gpio_init>

	uart.mode = GPIO_PIN_MODE_OUTPUT;
 800020e:	2301      	movs	r3, #1
 8000210:	663b      	str	r3, [r7, #96]	@ 0x60
	uart.pull = GPIO_PIN_PULL_UP;
 8000212:	2301      	movs	r3, #1
 8000214:	66fb      	str	r3, [r7, #108]	@ 0x6c
	for(int i = 0; i < 5; i++)
 8000216:	2300      	movs	r3, #0
 8000218:	f8c7 308c 	str.w	r3, [r7, #140]	@ 0x8c
 800021c:	e00d      	b.n	800023a <smarthome_initialize+0x66>
	{
		uart.pin = i;
 800021e:	f8d7 308c 	ldr.w	r3, [r7, #140]	@ 0x8c
 8000222:	65fb      	str	r3, [r7, #92]	@ 0x5c
		gpio_init(SMARTHOME_THERMOSTAT, &uart);
 8000224:	f107 035c 	add.w	r3, r7, #92	@ 0x5c
 8000228:	4619      	mov	r1, r3
 800022a:	487a      	ldr	r0, [pc, #488]	@ (8000414 <smarthome_initialize+0x240>)
 800022c:	f000 fc82 	bl	8000b34 <gpio_init>
	for(int i = 0; i < 5; i++)
 8000230:	f8d7 308c 	ldr.w	r3, [r7, #140]	@ 0x8c
 8000234:	3301      	adds	r3, #1
 8000236:	f8c7 308c 	str.w	r3, [r7, #140]	@ 0x8c
 800023a:	f8d7 308c 	ldr.w	r3, [r7, #140]	@ 0x8c
 800023e:	2b04      	cmp	r3, #4
 8000240:	dded      	ble.n	800021e <smarthome_initialize+0x4a>
	}
	gpio_write_to_pin(SMARTHOME_THERMOSTAT, SMARTHOME_THERMOSTAT_RST, 0x1);
 8000242:	2201      	movs	r2, #1
 8000244:	2102      	movs	r1, #2
 8000246:	4873      	ldr	r0, [pc, #460]	@ (8000414 <smarthome_initialize+0x240>)
 8000248:	f000 fda6 	bl	8000d98 <gpio_write_to_pin>
	for (int i = 0; i < 8; i++)
 800024c:	2300      	movs	r3, #0
 800024e:	f8c7 3088 	str.w	r3, [r7, #136]	@ 0x88
 8000252:	e01f      	b.n	8000294 <smarthome_initialize+0xc0>
	{
		gpio_write_to_pin(SMARTHOME_THERMOSTAT, SMARTHOME_THERMOSTAT_DQ, (0x0C >> i) & 0x01);
 8000254:	220c      	movs	r2, #12
 8000256:	f8d7 3088 	ldr.w	r3, [r7, #136]	@ 0x88
 800025a:	fa42 f303 	asr.w	r3, r2, r3
 800025e:	b2db      	uxtb	r3, r3
 8000260:	f003 0301 	and.w	r3, r3, #1
 8000264:	b2db      	uxtb	r3, r3
 8000266:	461a      	mov	r2, r3
 8000268:	2100      	movs	r1, #0
 800026a:	486a      	ldr	r0, [pc, #424]	@ (8000414 <smarthome_initialize+0x240>)
 800026c:	f000 fd94 	bl	8000d98 <gpio_write_to_pin>
		gpio_write_to_pin(SMARTHOME_THERMOSTAT, SMARTHOME_THERMOSTAT_CLK, 0x1);
 8000270:	2201      	movs	r2, #1
 8000272:	2101      	movs	r1, #1
 8000274:	4867      	ldr	r0, [pc, #412]	@ (8000414 <smarthome_initialize+0x240>)
 8000276:	f000 fd8f 	bl	8000d98 <gpio_write_to_pin>
		smarthome_delay(10);
 800027a:	200a      	movs	r0, #10
 800027c:	f000 f96d 	bl	800055a <smarthome_delay>
		gpio_write_to_pin(SMARTHOME_THERMOSTAT, SMARTHOME_THERMOSTAT_CLK, 0x0);
 8000280:	2200      	movs	r2, #0
 8000282:	2101      	movs	r1, #1
 8000284:	4863      	ldr	r0, [pc, #396]	@ (8000414 <smarthome_initialize+0x240>)
 8000286:	f000 fd87 	bl	8000d98 <gpio_write_to_pin>
	for (int i = 0; i < 8; i++)
 800028a:	f8d7 3088 	ldr.w	r3, [r7, #136]	@ 0x88
 800028e:	3301      	adds	r3, #1
 8000290:	f8c7 3088 	str.w	r3, [r7, #136]	@ 0x88
 8000294:	f8d7 3088 	ldr.w	r3, [r7, #136]	@ 0x88
 8000298:	2b07      	cmp	r3, #7
 800029a:	dddb      	ble.n	8000254 <smarthome_initialize+0x80>
	}
	for (int i = 0; i < 8; i++)
 800029c:	2300      	movs	r3, #0
 800029e:	f8c7 3084 	str.w	r3, [r7, #132]	@ 0x84
 80002a2:	e01f      	b.n	80002e4 <smarthome_initialize+0x110>
	{
		gpio_write_to_pin(SMARTHOME_THERMOSTAT, SMARTHOME_THERMOSTAT_DQ, (0x02 >> i) & 0x01);
 80002a4:	2202      	movs	r2, #2
 80002a6:	f8d7 3084 	ldr.w	r3, [r7, #132]	@ 0x84
 80002aa:	fa42 f303 	asr.w	r3, r2, r3
 80002ae:	b2db      	uxtb	r3, r3
 80002b0:	f003 0301 	and.w	r3, r3, #1
 80002b4:	b2db      	uxtb	r3, r3
 80002b6:	461a      	mov	r2, r3
 80002b8:	2100      	movs	r1, #0
 80002ba:	4856      	ldr	r0, [pc, #344]	@ (8000414 <smarthome_initialize+0x240>)
 80002bc:	f000 fd6c 	bl	8000d98 <gpio_write_to_pin>
		gpio_write_to_pin(SMARTHOME_THERMOSTAT, SMARTHOME_THERMOSTAT_CLK, 0x1);
 80002c0:	2201      	movs	r2, #1
 80002c2:	2101      	movs	r1, #1
 80002c4:	4853      	ldr	r0, [pc, #332]	@ (8000414 <smarthome_initialize+0x240>)
 80002c6:	f000 fd67 	bl	8000d98 <gpio_write_to_pin>
		smarthome_delay(10);
 80002ca:	200a      	movs	r0, #10
 80002cc:	f000 f945 	bl	800055a <smarthome_delay>
		gpio_write_to_pin(SMARTHOME_THERMOSTAT, SMARTHOME_THERMOSTAT_CLK, 0x0);
 80002d0:	2200      	movs	r2, #0
 80002d2:	2101      	movs	r1, #1
 80002d4:	484f      	ldr	r0, [pc, #316]	@ (8000414 <smarthome_initialize+0x240>)
 80002d6:	f000 fd5f 	bl	8000d98 <gpio_write_to_pin>
	for (int i = 0; i < 8; i++)
 80002da:	f8d7 3084 	ldr.w	r3, [r7, #132]	@ 0x84
 80002de:	3301      	adds	r3, #1
 80002e0:	f8c7 3084 	str.w	r3, [r7, #132]	@ 0x84
 80002e4:	f8d7 3084 	ldr.w	r3, [r7, #132]	@ 0x84
 80002e8:	2b07      	cmp	r3, #7
 80002ea:	dddb      	ble.n	80002a4 <smarthome_initialize+0xd0>
	}
	for (int i = 0; i < 8; i++)
 80002ec:	2300      	movs	r3, #0
 80002ee:	f8c7 3080 	str.w	r3, [r7, #128]	@ 0x80
 80002f2:	e01f      	b.n	8000334 <smarthome_initialize+0x160>
	{
		gpio_write_to_pin(SMARTHOME_THERMOSTAT, SMARTHOME_THERMOSTAT_DQ, (0xEE >> i) & 0x01);
 80002f4:	22ee      	movs	r2, #238	@ 0xee
 80002f6:	f8d7 3080 	ldr.w	r3, [r7, #128]	@ 0x80
 80002fa:	fa42 f303 	asr.w	r3, r2, r3
 80002fe:	b2db      	uxtb	r3, r3
 8000300:	f003 0301 	and.w	r3, r3, #1
 8000304:	b2db      	uxtb	r3, r3
 8000306:	461a      	mov	r2, r3
 8000308:	2100      	movs	r1, #0
 800030a:	4842      	ldr	r0, [pc, #264]	@ (8000414 <smarthome_initialize+0x240>)
 800030c:	f000 fd44 	bl	8000d98 <gpio_write_to_pin>
		gpio_write_to_pin(SMARTHOME_THERMOSTAT, SMARTHOME_THERMOSTAT_CLK, 0x1);
 8000310:	2201      	movs	r2, #1
 8000312:	2101      	movs	r1, #1
 8000314:	483f      	ldr	r0, [pc, #252]	@ (8000414 <smarthome_initialize+0x240>)
 8000316:	f000 fd3f 	bl	8000d98 <gpio_write_to_pin>
		smarthome_delay(10);
 800031a:	200a      	movs	r0, #10
 800031c:	f000 f91d 	bl	800055a <smarthome_delay>
		gpio_write_to_pin(SMARTHOME_THERMOSTAT, SMARTHOME_THERMOSTAT_CLK, 0x0);
 8000320:	2200      	movs	r2, #0
 8000322:	2101      	movs	r1, #1
 8000324:	483b      	ldr	r0, [pc, #236]	@ (8000414 <smarthome_initialize+0x240>)
 8000326:	f000 fd37 	bl	8000d98 <gpio_write_to_pin>
	for (int i = 0; i < 8; i++)
 800032a:	f8d7 3080 	ldr.w	r3, [r7, #128]	@ 0x80
 800032e:	3301      	adds	r3, #1
 8000330:	f8c7 3080 	str.w	r3, [r7, #128]	@ 0x80
 8000334:	f8d7 3080 	ldr.w	r3, [r7, #128]	@ 0x80
 8000338:	2b07      	cmp	r3, #7
 800033a:	dddb      	ble.n	80002f4 <smarthome_initialize+0x120>
	}

	RCC->AHB1ENR = RCC->AHB1ENR | 0x2;
 800033c:	4b34      	ldr	r3, [pc, #208]	@ (8000410 <smarthome_initialize+0x23c>)
 800033e:	6b1b      	ldr	r3, [r3, #48]	@ 0x30
 8000340:	4a33      	ldr	r2, [pc, #204]	@ (8000410 <smarthome_initialize+0x23c>)
 8000342:	f043 0302 	orr.w	r3, r3, #2
 8000346:	6313      	str	r3, [r2, #48]	@ 0x30
	uart.mode = GPIO_PIN_MODE_OUTPUT;
 8000348:	2301      	movs	r3, #1
 800034a:	663b      	str	r3, [r7, #96]	@ 0x60
	uart.alternate_function = GPIO_PIN_ALTERNATE_FUNCTION_AF0_SYSTEM;
 800034c:	2300      	movs	r3, #0
 800034e:	673b      	str	r3, [r7, #112]	@ 0x70
	uart.pull = GPIO_PIN_PULL_UP;
 8000350:	2301      	movs	r3, #1
 8000352:	66fb      	str	r3, [r7, #108]	@ 0x6c
	uart.output_type = GPIO_PIN_OUTPUT_TYPE_PUSH_PULL;
 8000354:	2300      	movs	r3, #0
 8000356:	667b      	str	r3, [r7, #100]	@ 0x64
	uart.output_speed = GPIO_PIN_OUTPUT_SPEED_MEDIUM;
 8000358:	2301      	movs	r3, #1
 800035a:	66bb      	str	r3, [r7, #104]	@ 0x68
	for(int i = 0; i < 2; i++)
 800035c:	2300      	movs	r3, #0
 800035e:	67fb      	str	r3, [r7, #124]	@ 0x7c
 8000360:	e00a      	b.n	8000378 <smarthome_initialize+0x1a4>
	{
		uart.pin = i;
 8000362:	6ffb      	ldr	r3, [r7, #124]	@ 0x7c
 8000364:	65fb      	str	r3, [r7, #92]	@ 0x5c
		gpio_init(SMARTHOME_DOORLOCKS, &uart);
 8000366:	f107 035c 	add.w	r3, r7, #92	@ 0x5c
 800036a:	4619      	mov	r1, r3
 800036c:	482a      	ldr	r0, [pc, #168]	@ (8000418 <smarthome_initialize+0x244>)
 800036e:	f000 fbe1 	bl	8000b34 <gpio_init>
	for(int i = 0; i < 2; i++)
 8000372:	6ffb      	ldr	r3, [r7, #124]	@ 0x7c
 8000374:	3301      	adds	r3, #1
 8000376:	67fb      	str	r3, [r7, #124]	@ 0x7c
 8000378:	6ffb      	ldr	r3, [r7, #124]	@ 0x7c
 800037a:	2b01      	cmp	r3, #1
 800037c:	ddf1      	ble.n	8000362 <smarthome_initialize+0x18e>
	}

	RCC->AHB1ENR = RCC->AHB1ENR | 0x4;
 800037e:	4b24      	ldr	r3, [pc, #144]	@ (8000410 <smarthome_initialize+0x23c>)
 8000380:	6b1b      	ldr	r3, [r3, #48]	@ 0x30
 8000382:	4a23      	ldr	r2, [pc, #140]	@ (8000410 <smarthome_initialize+0x23c>)
 8000384:	f043 0304 	orr.w	r3, r3, #4
 8000388:	6313      	str	r3, [r2, #48]	@ 0x30
	uart.mode = GPIO_PIN_MODE_INPUT;
 800038a:	2300      	movs	r3, #0
 800038c:	663b      	str	r3, [r7, #96]	@ 0x60
	uart.alternate_function = GPIO_PIN_ALTERNATE_FUNCTION_AF0_SYSTEM;
 800038e:	2300      	movs	r3, #0
 8000390:	673b      	str	r3, [r7, #112]	@ 0x70
	uart.pull = GPIO_PIN_PULL_DOWN;
 8000392:	2302      	movs	r3, #2
 8000394:	66fb      	str	r3, [r7, #108]	@ 0x6c
	uart.pin = SMARTHOME_ALARM_SMOKE;
 8000396:	2300      	movs	r3, #0
 8000398:	65fb      	str	r3, [r7, #92]	@ 0x5c
	gpio_init(SMARTHOME_ALARMS, &uart);
 800039a:	f107 035c 	add.w	r3, r7, #92	@ 0x5c
 800039e:	4619      	mov	r1, r3
 80003a0:	481e      	ldr	r0, [pc, #120]	@ (800041c <smarthome_initialize+0x248>)
 80003a2:	f000 fbc7 	bl	8000b34 <gpio_init>

	RCC->AHB1ENR = RCC->AHB1ENR | 0x8;
 80003a6:	4b1a      	ldr	r3, [pc, #104]	@ (8000410 <smarthome_initialize+0x23c>)
 80003a8:	6b1b      	ldr	r3, [r3, #48]	@ 0x30
 80003aa:	4a19      	ldr	r2, [pc, #100]	@ (8000410 <smarthome_initialize+0x23c>)
 80003ac:	f043 0308 	orr.w	r3, r3, #8
 80003b0:	6313      	str	r3, [r2, #48]	@ 0x30
	uart.mode = GPIO_PIN_MODE_OUTPUT;
 80003b2:	2301      	movs	r3, #1
 80003b4:	663b      	str	r3, [r7, #96]	@ 0x60
	uart.alternate_function = GPIO_PIN_ALTERNATE_FUNCTION_AF0_SYSTEM;
 80003b6:	2300      	movs	r3, #0
 80003b8:	673b      	str	r3, [r7, #112]	@ 0x70
	uart.pull = GPIO_PIN_PULL_DOWN;
 80003ba:	2302      	movs	r3, #2
 80003bc:	66fb      	str	r3, [r7, #108]	@ 0x6c
	uart.output_type = GPIO_PIN_OUTPUT_TYPE_PUSH_PULL;
 80003be:	2300      	movs	r3, #0
 80003c0:	667b      	str	r3, [r7, #100]	@ 0x64
	uart.output_speed = GPIO_PIN_OUTPUT_SPEED_MEDIUM;
 80003c2:	2301      	movs	r3, #1
 80003c4:	66bb      	str	r3, [r7, #104]	@ 0x68
	for(int i = 0; i < 8; i++)
 80003c6:	2300      	movs	r3, #0
 80003c8:	67bb      	str	r3, [r7, #120]	@ 0x78
 80003ca:	e00a      	b.n	80003e2 <smarthome_initialize+0x20e>
	{
		uart.pin = i;
 80003cc:	6fbb      	ldr	r3, [r7, #120]	@ 0x78
 80003ce:	65fb      	str	r3, [r7, #92]	@ 0x5c
		gpio_init(SMARTHOME_LIGHTS, &uart);
 80003d0:	f107 035c 	add.w	r3, r7, #92	@ 0x5c
 80003d4:	4619      	mov	r1, r3
 80003d6:	4812      	ldr	r0, [pc, #72]	@ (8000420 <smarthome_initialize+0x24c>)
 80003d8:	f000 fbac 	bl	8000b34 <gpio_init>
	for(int i = 0; i < 8; i++)
 80003dc:	6fbb      	ldr	r3, [r7, #120]	@ 0x78
 80003de:	3301      	adds	r3, #1
 80003e0:	67bb      	str	r3, [r7, #120]	@ 0x78
 80003e2:	6fbb      	ldr	r3, [r7, #120]	@ 0x78
 80003e4:	2b07      	cmp	r3, #7
 80003e6:	ddf1      	ble.n	80003cc <smarthome_initialize+0x1f8>
	}

	RCC->AHB1ENR = RCC->AHB1ENR | 0x10;
 80003e8:	4b09      	ldr	r3, [pc, #36]	@ (8000410 <smarthome_initialize+0x23c>)
 80003ea:	6b1b      	ldr	r3, [r3, #48]	@ 0x30
 80003ec:	4a08      	ldr	r2, [pc, #32]	@ (8000410 <smarthome_initialize+0x23c>)
 80003ee:	f043 0310 	orr.w	r3, r3, #16
 80003f2:	6313      	str	r3, [r2, #48]	@ 0x30
	uart.mode = GPIO_PIN_MODE_OUTPUT;
 80003f4:	2301      	movs	r3, #1
 80003f6:	663b      	str	r3, [r7, #96]	@ 0x60
	uart.alternate_function = GPIO_PIN_ALTERNATE_FUNCTION_AF0_SYSTEM;
 80003f8:	2300      	movs	r3, #0
 80003fa:	673b      	str	r3, [r7, #112]	@ 0x70
	uart.pull = GPIO_PIN_PULL_DOWN;
 80003fc:	2302      	movs	r3, #2
 80003fe:	66fb      	str	r3, [r7, #108]	@ 0x6c
	uart.output_type = GPIO_PIN_OUTPUT_TYPE_PUSH_PULL;
 8000400:	2300      	movs	r3, #0
 8000402:	667b      	str	r3, [r7, #100]	@ 0x64
	uart.output_speed = GPIO_PIN_OUTPUT_SPEED_MEDIUM;
 8000404:	2301      	movs	r3, #1
 8000406:	66bb      	str	r3, [r7, #104]	@ 0x68
	for(int i = 0; i < 10; i++)
 8000408:	2300      	movs	r3, #0
 800040a:	677b      	str	r3, [r7, #116]	@ 0x74
 800040c:	e015      	b.n	800043a <smarthome_initialize+0x266>
 800040e:	bf00      	nop
 8000410:	40023800 	.word	0x40023800
 8000414:	40020000 	.word	0x40020000
 8000418:	40020400 	.word	0x40020400
 800041c:	40020800 	.word	0x40020800
 8000420:	40020c00 	.word	0x40020c00
	{
		uart.pin = i;
 8000424:	6f7b      	ldr	r3, [r7, #116]	@ 0x74
 8000426:	65fb      	str	r3, [r7, #92]	@ 0x5c
		gpio_init(SMARTHOME_SWITCHES, &uart);
 8000428:	f107 035c 	add.w	r3, r7, #92	@ 0x5c
 800042c:	4619      	mov	r1, r3
 800042e:	4839      	ldr	r0, [pc, #228]	@ (8000514 <smarthome_initialize+0x340>)
 8000430:	f000 fb80 	bl	8000b34 <gpio_init>
	for(int i = 0; i < 10; i++)
 8000434:	6f7b      	ldr	r3, [r7, #116]	@ 0x74
 8000436:	3301      	adds	r3, #1
 8000438:	677b      	str	r3, [r7, #116]	@ 0x74
 800043a:	6f7b      	ldr	r3, [r7, #116]	@ 0x74
 800043c:	2b09      	cmp	r3, #9
 800043e:	ddf1      	ble.n	8000424 <smarthome_initialize+0x250>
	}

	usart_type usart1;
	usart1.usart = USART1;
 8000440:	4b35      	ldr	r3, [pc, #212]	@ (8000518 <smarthome_initialize+0x344>)
 8000442:	607b      	str	r3, [r7, #4]
	usart1.type = USART1_TYPE;
 8000444:	2300      	movs	r3, #0
 8000446:	60bb      	str	r3, [r7, #8]
	usart1.over8 = USART_OVER8_16;
 8000448:	2300      	movs	r3, #0
 800044a:	81bb      	strh	r3, [r7, #12]
	usart1.ue = USART_UE_DISABLED;
 800044c:	2300      	movs	r3, #0
 800044e:	81fb      	strh	r3, [r7, #14]
	usart1.m = USART_M_8_BITS;
 8000450:	2300      	movs	r3, #0
 8000452:	823b      	strh	r3, [r7, #16]
	usart1.wake = USART_WAKE_IDLE_LINE;
 8000454:	2300      	movs	r3, #0
 8000456:	827b      	strh	r3, [r7, #18]
	usart1.pce = USART_PCE_DISABLED;
 8000458:	2300      	movs	r3, #0
 800045a:	82bb      	strh	r3, [r7, #20]
	usart1.ps = USART_PS_EVEN;
 800045c:	2300      	movs	r3, #0
 800045e:	82fb      	strh	r3, [r7, #22]
	usart1.peie = USART_PEIE_INHIBITED;
 8000460:	2300      	movs	r3, #0
 8000462:	833b      	strh	r3, [r7, #24]
	usart1.txeie = USART_TXEIE_INHIBITED;
 8000464:	2300      	movs	r3, #0
 8000466:	837b      	strh	r3, [r7, #26]
	usart1.tcie = USART_TCIE_INHIBITED;
 8000468:	2300      	movs	r3, #0
 800046a:	83bb      	strh	r3, [r7, #28]
	usart1.rxneie = USART_RXNEIE_ENABLED;
 800046c:	2301      	movs	r3, #1
 800046e:	83fb      	strh	r3, [r7, #30]
    usart1.idleie = USART_IDLEIE_INHIBITED;
 8000470:	2300      	movs	r3, #0
 8000472:	843b      	strh	r3, [r7, #32]
	usart1.te = USART_TE_ENABLED;
 8000474:	2301      	movs	r3, #1
 8000476:	847b      	strh	r3, [r7, #34]	@ 0x22
	usart1.re = USART_RE_ENABLED;
 8000478:	2301      	movs	r3, #1
 800047a:	84bb      	strh	r3, [r7, #36]	@ 0x24
	usart1.rwu = USART_RWU_ACTIVE_MODE;
 800047c:	2300      	movs	r3, #0
 800047e:	84fb      	strh	r3, [r7, #38]	@ 0x26
	usart1.sbk = USART_SBK_NO_TRANSMIT;
 8000480:	2300      	movs	r3, #0
 8000482:	853b      	strh	r3, [r7, #40]	@ 0x28
	usart1.linen = USART_LINEN_DISABLED;
 8000484:	2300      	movs	r3, #0
 8000486:	857b      	strh	r3, [r7, #42]	@ 0x2a
	usart1.stop = USART_STOP_1_BIT;
 8000488:	2300      	movs	r3, #0
 800048a:	85bb      	strh	r3, [r7, #44]	@ 0x2c
	usart1.clken = USART_CLKEN_DISABLED;
 800048c:	2300      	movs	r3, #0
 800048e:	85fb      	strh	r3, [r7, #46]	@ 0x2e
	usart1.cpol = USART_CPOL_LOW;
 8000490:	2300      	movs	r3, #0
 8000492:	863b      	strh	r3, [r7, #48]	@ 0x30
	usart1.cpha = USART_CPHA_FIRST_EDGE;
 8000494:	2300      	movs	r3, #0
 8000496:	867b      	strh	r3, [r7, #50]	@ 0x32
	usart1.lbcl = USART_LBCL_NOT_OUTPUT;
 8000498:	2300      	movs	r3, #0
 800049a:	86bb      	strh	r3, [r7, #52]	@ 0x34
	usart1.lbdie = USART_LBDIE_INHIBITED;
 800049c:	2300      	movs	r3, #0
 800049e:	86fb      	strh	r3, [r7, #54]	@ 0x36
	usart1.lbdl = USART_LBDL_10_BIT;
 80004a0:	2300      	movs	r3, #0
 80004a2:	873b      	strh	r3, [r7, #56]	@ 0x38
	usart1.add = 0x0;
 80004a4:	2300      	movs	r3, #0
 80004a6:	877b      	strh	r3, [r7, #58]	@ 0x3a
	usart1.onebit = USART_ONEBIT_THREE_SAMPLE;
 80004a8:	2300      	movs	r3, #0
 80004aa:	87bb      	strh	r3, [r7, #60]	@ 0x3c
	usart1.ctsie = USART_CTSIE_INHIBITED;
 80004ac:	2300      	movs	r3, #0
 80004ae:	87fb      	strh	r3, [r7, #62]	@ 0x3e
	usart1.ctse = USART_CTSE_DISABLED;
 80004b0:	2300      	movs	r3, #0
 80004b2:	f8a7 3040 	strh.w	r3, [r7, #64]	@ 0x40
	usart1.rtse = USART_RTSE_DISABLED;
 80004b6:	2300      	movs	r3, #0
 80004b8:	f8a7 3042 	strh.w	r3, [r7, #66]	@ 0x42
	usart1.dmat = USART_DMAT_DISABLED;
 80004bc:	2300      	movs	r3, #0
 80004be:	f8a7 3044 	strh.w	r3, [r7, #68]	@ 0x44
	usart1.dmar = USART_DMAR_DISABLED;
 80004c2:	2300      	movs	r3, #0
 80004c4:	f8a7 3046 	strh.w	r3, [r7, #70]	@ 0x46
	usart1.scen = USART_SCEN_DISABLED;
 80004c8:	2300      	movs	r3, #0
 80004ca:	f8a7 3048 	strh.w	r3, [r7, #72]	@ 0x48
	usart1.nack = USART_NACK_DISABLED;
 80004ce:	2300      	movs	r3, #0
 80004d0:	f8a7 304a 	strh.w	r3, [r7, #74]	@ 0x4a
	usart1.hdsel = USART_HDSEL_NOT_SELECTED;
 80004d4:	2300      	movs	r3, #0
 80004d6:	f8a7 304c 	strh.w	r3, [r7, #76]	@ 0x4c
	usart1.irlp = USART_IRLP_NORMAL_MODE;
 80004da:	2300      	movs	r3, #0
 80004dc:	f8a7 304e 	strh.w	r3, [r7, #78]	@ 0x4e
	usart1.iren = USART_IREN_DISABLED;
 80004e0:	2300      	movs	r3, #0
 80004e2:	f8a7 3050 	strh.w	r3, [r7, #80]	@ 0x50
	usart1.eie = USART_EIE_INHIBITED;
 80004e6:	2300      	movs	r3, #0
 80004e8:	f8a7 3052 	strh.w	r3, [r7, #82]	@ 0x52
	usart1.div_mantissa = 0x68;
 80004ec:	2368      	movs	r3, #104	@ 0x68
 80004ee:	f8a7 3054 	strh.w	r3, [r7, #84]	@ 0x54
	usart1.div_fraction = 0x3;
 80004f2:	2303      	movs	r3, #3
 80004f4:	f8a7 3056 	strh.w	r3, [r7, #86]	@ 0x56
	usart1.gt = 0x00;
 80004f8:	2300      	movs	r3, #0
 80004fa:	f8a7 3058 	strh.w	r3, [r7, #88]	@ 0x58
	usart1.psc = 0x00;
 80004fe:	2300      	movs	r3, #0
 8000500:	f8a7 305a 	strh.w	r3, [r7, #90]	@ 0x5a
	usart_configure(&usart1);
 8000504:	1d3b      	adds	r3, r7, #4
 8000506:	4618      	mov	r0, r3
 8000508:	f000 fe67 	bl	80011da <usart_configure>
}
 800050c:	bf00      	nop
 800050e:	3790      	adds	r7, #144	@ 0x90
 8000510:	46bd      	mov	sp, r7
 8000512:	bd80      	pop	{r7, pc}
 8000514:	40021000 	.word	0x40021000
 8000518:	40011000 	.word	0x40011000

0800051c <smarthome_configure_interrupts>:

void smarthome_configure_interrupts()
{
 800051c:	b580      	push	{r7, lr}
 800051e:	af00      	add	r7, sp, #0
	usart_enable_interrupt(USART1_IRQn);
 8000520:	2025      	movs	r0, #37	@ 0x25
 8000522:	f001 fb73 	bl	8001c0c <usart_enable_interrupt>
	gpio_configure_interrupt(SMARTHOME_THERMOSTAT_THIGH, GPIO_RISING_FALLING_EDGE);
 8000526:	2102      	movs	r1, #2
 8000528:	2003      	movs	r0, #3
 800052a:	f000 fc57 	bl	8000ddc <gpio_configure_interrupt>
	gpio_enable_interrupt(SMARTHOME_THERMOSTAT_THIGH, EXTI3_IRQn);
 800052e:	2109      	movs	r1, #9
 8000530:	2003      	movs	r0, #3
 8000532:	f000 fcc7 	bl	8000ec4 <gpio_enable_interrupt>
	gpio_configure_interrupt(SMARTHOME_THERMOSTAT_TLOW, GPIO_RISING_FALLING_EDGE);
 8000536:	2102      	movs	r1, #2
 8000538:	2004      	movs	r0, #4
 800053a:	f000 fc4f 	bl	8000ddc <gpio_configure_interrupt>
	gpio_enable_interrupt(SMARTHOME_THERMOSTAT_TLOW, EXTI4_IRQn);
 800053e:	210a      	movs	r1, #10
 8000540:	2004      	movs	r0, #4
 8000542:	f000 fcbf 	bl	8000ec4 <gpio_enable_interrupt>
	gpio_configure_interrupt(SMARTHOME_ALARM_SMOKE, GPIO_RISING_FALLING_EDGE);
 8000546:	2102      	movs	r1, #2
 8000548:	2000      	movs	r0, #0
 800054a:	f000 fc47 	bl	8000ddc <gpio_configure_interrupt>
	gpio_enable_interrupt(SMARTHOME_ALARM_SMOKE, EXTI0_IRQn);
 800054e:	2106      	movs	r1, #6
 8000550:	2000      	movs	r0, #0
 8000552:	f000 fcb7 	bl	8000ec4 <gpio_enable_interrupt>
}
 8000556:	bf00      	nop
 8000558:	bd80      	pop	{r7, pc}

0800055a <smarthome_delay>:

void smarthome_delay(uint32_t microseconds) {
 800055a:	b480      	push	{r7}
 800055c:	b085      	sub	sp, #20
 800055e:	af00      	add	r7, sp, #0
 8000560:	6078      	str	r0, [r7, #4]
    uint32_t cycles = microseconds * 16;
 8000562:	687b      	ldr	r3, [r7, #4]
 8000564:	011b      	lsls	r3, r3, #4
 8000566:	60fb      	str	r3, [r7, #12]
    while (cycles--) {
 8000568:	e000      	b.n	800056c <smarthome_delay+0x12>
        __NOP();
 800056a:	bf00      	nop
    while (cycles--) {
 800056c:	68fb      	ldr	r3, [r7, #12]
 800056e:	1e5a      	subs	r2, r3, #1
 8000570:	60fa      	str	r2, [r7, #12]
 8000572:	2b00      	cmp	r3, #0
 8000574:	d1f9      	bne.n	800056a <smarthome_delay+0x10>
    }
}
 8000576:	bf00      	nop
 8000578:	bf00      	nop
 800057a:	3714      	adds	r7, #20
 800057c:	46bd      	mov	sp, r7
 800057e:	f85d 7b04 	ldr.w	r7, [sp], #4
 8000582:	4770      	bx	lr

08000584 <smarthome_temperature_read>:

int16_t smarthome_temperature_read()
{
 8000584:	b580      	push	{r7, lr}
 8000586:	b086      	sub	sp, #24
 8000588:	af00      	add	r7, sp, #0
	int16_t temp;
	gpio_configure_pin_mode(GPIOA, 0, GPIO_PIN_MODE_OUTPUT);
 800058a:	2201      	movs	r2, #1
 800058c:	2100      	movs	r1, #0
 800058e:	4845      	ldr	r0, [pc, #276]	@ (80006a4 <smarthome_temperature_read+0x120>)
 8000590:	f000 fb25 	bl	8000bde <gpio_configure_pin_mode>
	for (int i = 0; i < 8; i++)
 8000594:	2300      	movs	r3, #0
 8000596:	617b      	str	r3, [r7, #20]
 8000598:	e01c      	b.n	80005d4 <smarthome_temperature_read+0x50>
	{
	    gpio_write_to_pin(SMARTHOME_THERMOSTAT, SMARTHOME_THERMOSTAT_DQ, (0xAA >> i) & 0x01);
 800059a:	22aa      	movs	r2, #170	@ 0xaa
 800059c:	697b      	ldr	r3, [r7, #20]
 800059e:	fa42 f303 	asr.w	r3, r2, r3
 80005a2:	b2db      	uxtb	r3, r3
 80005a4:	f003 0301 	and.w	r3, r3, #1
 80005a8:	b2db      	uxtb	r3, r3
 80005aa:	461a      	mov	r2, r3
 80005ac:	2100      	movs	r1, #0
 80005ae:	483d      	ldr	r0, [pc, #244]	@ (80006a4 <smarthome_temperature_read+0x120>)
 80005b0:	f000 fbf2 	bl	8000d98 <gpio_write_to_pin>
	    gpio_write_to_pin(SMARTHOME_THERMOSTAT, SMARTHOME_THERMOSTAT_CLK, 0x1);
 80005b4:	2201      	movs	r2, #1
 80005b6:	2101      	movs	r1, #1
 80005b8:	483a      	ldr	r0, [pc, #232]	@ (80006a4 <smarthome_temperature_read+0x120>)
 80005ba:	f000 fbed 	bl	8000d98 <gpio_write_to_pin>
	    smarthome_delay(10);
 80005be:	200a      	movs	r0, #10
 80005c0:	f7ff ffcb 	bl	800055a <smarthome_delay>
	    gpio_write_to_pin(SMARTHOME_THERMOSTAT, SMARTHOME_THERMOSTAT_CLK, 0x0);
 80005c4:	2200      	movs	r2, #0
 80005c6:	2101      	movs	r1, #1
 80005c8:	4836      	ldr	r0, [pc, #216]	@ (80006a4 <smarthome_temperature_read+0x120>)
 80005ca:	f000 fbe5 	bl	8000d98 <gpio_write_to_pin>
	for (int i = 0; i < 8; i++)
 80005ce:	697b      	ldr	r3, [r7, #20]
 80005d0:	3301      	adds	r3, #1
 80005d2:	617b      	str	r3, [r7, #20]
 80005d4:	697b      	ldr	r3, [r7, #20]
 80005d6:	2b07      	cmp	r3, #7
 80005d8:	dddf      	ble.n	800059a <smarthome_temperature_read+0x16>
	}
	gpio_configure_pin_mode(GPIOA, 0, GPIO_PIN_MODE_INPUT);
 80005da:	2200      	movs	r2, #0
 80005dc:	2100      	movs	r1, #0
 80005de:	4831      	ldr	r0, [pc, #196]	@ (80006a4 <smarthome_temperature_read+0x120>)
 80005e0:	f000 fafd 	bl	8000bde <gpio_configure_pin_mode>
	uint8_t lsb = 0;
 80005e4:	2300      	movs	r3, #0
 80005e6:	74fb      	strb	r3, [r7, #19]
	for (int i = 0; i < 8; i++)
 80005e8:	2300      	movs	r3, #0
 80005ea:	60fb      	str	r3, [r7, #12]
 80005ec:	e01e      	b.n	800062c <smarthome_temperature_read+0xa8>
	{
		gpio_write_to_pin(SMARTHOME_THERMOSTAT, SMARTHOME_THERMOSTAT_CLK, 0x1);
 80005ee:	2201      	movs	r2, #1
 80005f0:	2101      	movs	r1, #1
 80005f2:	482c      	ldr	r0, [pc, #176]	@ (80006a4 <smarthome_temperature_read+0x120>)
 80005f4:	f000 fbd0 	bl	8000d98 <gpio_write_to_pin>
	    smarthome_delay(10);
 80005f8:	200a      	movs	r0, #10
 80005fa:	f7ff ffae 	bl	800055a <smarthome_delay>
	    lsb = lsb | (gpio_read_from_pin(SMARTHOME_THERMOSTAT, SMARTHOME_THERMOSTAT_DQ) << i);
 80005fe:	2100      	movs	r1, #0
 8000600:	4828      	ldr	r0, [pc, #160]	@ (80006a4 <smarthome_temperature_read+0x120>)
 8000602:	f000 fbb4 	bl	8000d6e <gpio_read_from_pin>
 8000606:	4603      	mov	r3, r0
 8000608:	461a      	mov	r2, r3
 800060a:	68fb      	ldr	r3, [r7, #12]
 800060c:	fa02 f303 	lsl.w	r3, r2, r3
 8000610:	b25a      	sxtb	r2, r3
 8000612:	f997 3013 	ldrsb.w	r3, [r7, #19]
 8000616:	4313      	orrs	r3, r2
 8000618:	b25b      	sxtb	r3, r3
 800061a:	74fb      	strb	r3, [r7, #19]
	    gpio_write_to_pin(SMARTHOME_THERMOSTAT, SMARTHOME_THERMOSTAT_CLK, 0x0);
 800061c:	2200      	movs	r2, #0
 800061e:	2101      	movs	r1, #1
 8000620:	4820      	ldr	r0, [pc, #128]	@ (80006a4 <smarthome_temperature_read+0x120>)
 8000622:	f000 fbb9 	bl	8000d98 <gpio_write_to_pin>
	for (int i = 0; i < 8; i++)
 8000626:	68fb      	ldr	r3, [r7, #12]
 8000628:	3301      	adds	r3, #1
 800062a:	60fb      	str	r3, [r7, #12]
 800062c:	68fb      	ldr	r3, [r7, #12]
 800062e:	2b07      	cmp	r3, #7
 8000630:	dddd      	ble.n	80005ee <smarthome_temperature_read+0x6a>
	}
	uint8_t msb = 0;
 8000632:	2300      	movs	r3, #0
 8000634:	72fb      	strb	r3, [r7, #11]
	for (int i = 0; i < 8; i++)
 8000636:	2300      	movs	r3, #0
 8000638:	607b      	str	r3, [r7, #4]
 800063a:	e01e      	b.n	800067a <smarthome_temperature_read+0xf6>
	{
		gpio_write_to_pin(SMARTHOME_THERMOSTAT, SMARTHOME_THERMOSTAT_CLK, 0x1);
 800063c:	2201      	movs	r2, #1
 800063e:	2101      	movs	r1, #1
 8000640:	4818      	ldr	r0, [pc, #96]	@ (80006a4 <smarthome_temperature_read+0x120>)
 8000642:	f000 fba9 	bl	8000d98 <gpio_write_to_pin>
		smarthome_delay(10);
 8000646:	200a      	movs	r0, #10
 8000648:	f7ff ff87 	bl	800055a <smarthome_delay>
		msb = msb | (gpio_read_from_pin(SMARTHOME_THERMOSTAT, SMARTHOME_THERMOSTAT_DQ) << i);
 800064c:	2100      	movs	r1, #0
 800064e:	4815      	ldr	r0, [pc, #84]	@ (80006a4 <smarthome_temperature_read+0x120>)
 8000650:	f000 fb8d 	bl	8000d6e <gpio_read_from_pin>
 8000654:	4603      	mov	r3, r0
 8000656:	461a      	mov	r2, r3
 8000658:	687b      	ldr	r3, [r7, #4]
 800065a:	fa02 f303 	lsl.w	r3, r2, r3
 800065e:	b25a      	sxtb	r2, r3
 8000660:	f997 300b 	ldrsb.w	r3, [r7, #11]
 8000664:	4313      	orrs	r3, r2
 8000666:	b25b      	sxtb	r3, r3
 8000668:	72fb      	strb	r3, [r7, #11]
		gpio_write_to_pin(SMARTHOME_THERMOSTAT, SMARTHOME_THERMOSTAT_CLK, 0x0);
 800066a:	2200      	movs	r2, #0
 800066c:	2101      	movs	r1, #1
 800066e:	480d      	ldr	r0, [pc, #52]	@ (80006a4 <smarthome_temperature_read+0x120>)
 8000670:	f000 fb92 	bl	8000d98 <gpio_write_to_pin>
	for (int i = 0; i < 8; i++)
 8000674:	687b      	ldr	r3, [r7, #4]
 8000676:	3301      	adds	r3, #1
 8000678:	607b      	str	r3, [r7, #4]
 800067a:	687b      	ldr	r3, [r7, #4]
 800067c:	2b07      	cmp	r3, #7
 800067e:	dddd      	ble.n	800063c <smarthome_temperature_read+0xb8>
	}

	temp = ((int16_t)msb << 8) | lsb;
 8000680:	7afb      	ldrb	r3, [r7, #11]
 8000682:	021b      	lsls	r3, r3, #8
 8000684:	b21a      	sxth	r2, r3
 8000686:	7cfb      	ldrb	r3, [r7, #19]
 8000688:	b21b      	sxth	r3, r3
 800068a:	4313      	orrs	r3, r2
 800068c:	807b      	strh	r3, [r7, #2]

	return temp / 2;
 800068e:	f9b7 3002 	ldrsh.w	r3, [r7, #2]
 8000692:	0fda      	lsrs	r2, r3, #31
 8000694:	4413      	add	r3, r2
 8000696:	105b      	asrs	r3, r3, #1
 8000698:	b21b      	sxth	r3, r3
}
 800069a:	4618      	mov	r0, r3
 800069c:	3718      	adds	r7, #24
 800069e:	46bd      	mov	sp, r7
 80006a0:	bd80      	pop	{r7, pc}
 80006a2:	bf00      	nop
 80006a4:	40020000 	.word	0x40020000

080006a8 <smarthome_change_state>:

void smarthome_change_state(uint16_t data)
{
 80006a8:	b580      	push	{r7, lr}
 80006aa:	b082      	sub	sp, #8
 80006ac:	af00      	add	r7, sp, #0
 80006ae:	4603      	mov	r3, r0
 80006b0:	80fb      	strh	r3, [r7, #6]
	if(data & 0x80)
 80006b2:	88fb      	ldrh	r3, [r7, #6]
 80006b4:	f003 0380 	and.w	r3, r3, #128	@ 0x80
 80006b8:	2b00      	cmp	r3, #0
 80006ba:	d004      	beq.n	80006c6 <smarthome_change_state+0x1e>
	{
		smarthome_change_temperature(data);
 80006bc:	88fb      	ldrh	r3, [r7, #6]
 80006be:	4618      	mov	r0, r3
 80006c0:	f000 f858 	bl	8000774 <smarthome_change_temperature>
	}
	else
	{
		smarthome_change_device_state(data);
	}
}
 80006c4:	e003      	b.n	80006ce <smarthome_change_state+0x26>
		smarthome_change_device_state(data);
 80006c6:	88fb      	ldrh	r3, [r7, #6]
 80006c8:	4618      	mov	r0, r3
 80006ca:	f000 f805 	bl	80006d8 <smarthome_change_device_state>
}
 80006ce:	bf00      	nop
 80006d0:	3708      	adds	r7, #8
 80006d2:	46bd      	mov	sp, r7
 80006d4:	bd80      	pop	{r7, pc}
	...

080006d8 <smarthome_change_device_state>:


void smarthome_change_device_state(uint16_t data)
{
 80006d8:	b580      	push	{r7, lr}
 80006da:	b082      	sub	sp, #8
 80006dc:	af00      	add	r7, sp, #0
 80006de:	4603      	mov	r3, r0
 80006e0:	80fb      	strh	r3, [r7, #6]
	if((data & 0x60) == SMARTHOME_CODE_LIGHT_BEDROOM)
 80006e2:	88fb      	ldrh	r3, [r7, #6]
 80006e4:	f003 0360 	and.w	r3, r3, #96	@ 0x60
 80006e8:	2b00      	cmp	r3, #0
 80006ea:	d10f      	bne.n	800070c <smarthome_change_device_state+0x34>
	{
		gpio_write_to_pin(SMARTHOME_LIGHTS, (data & 0x1E) >> 0x1, data & 0x1);
 80006ec:	88fb      	ldrh	r3, [r7, #6]
 80006ee:	105b      	asrs	r3, r3, #1
 80006f0:	b29b      	uxth	r3, r3
 80006f2:	f003 030f 	and.w	r3, r3, #15
 80006f6:	b299      	uxth	r1, r3
 80006f8:	88fb      	ldrh	r3, [r7, #6]
 80006fa:	b2db      	uxtb	r3, r3
 80006fc:	f003 0301 	and.w	r3, r3, #1
 8000700:	b2db      	uxtb	r3, r3
 8000702:	461a      	mov	r2, r3
 8000704:	4818      	ldr	r0, [pc, #96]	@ (8000768 <smarthome_change_device_state+0x90>)
 8000706:	f000 fb47 	bl	8000d98 <gpio_write_to_pin>
			{
				//invalid code word, ERROR
			}
		}
	}
}
 800070a:	e028      	b.n	800075e <smarthome_change_device_state+0x86>
		if((data & 0x60) == SMARTHOME_CODE_DOORLOCK_FRONT)
 800070c:	88fb      	ldrh	r3, [r7, #6]
 800070e:	f003 0360 	and.w	r3, r3, #96	@ 0x60
 8000712:	2b20      	cmp	r3, #32
 8000714:	d10f      	bne.n	8000736 <smarthome_change_device_state+0x5e>
			gpio_write_to_pin(SMARTHOME_DOORLOCKS, (data & 0x1E) >> 0x1, data & 0x1);
 8000716:	88fb      	ldrh	r3, [r7, #6]
 8000718:	105b      	asrs	r3, r3, #1
 800071a:	b29b      	uxth	r3, r3
 800071c:	f003 030f 	and.w	r3, r3, #15
 8000720:	b299      	uxth	r1, r3
 8000722:	88fb      	ldrh	r3, [r7, #6]
 8000724:	b2db      	uxtb	r3, r3
 8000726:	f003 0301 	and.w	r3, r3, #1
 800072a:	b2db      	uxtb	r3, r3
 800072c:	461a      	mov	r2, r3
 800072e:	480f      	ldr	r0, [pc, #60]	@ (800076c <smarthome_change_device_state+0x94>)
 8000730:	f000 fb32 	bl	8000d98 <gpio_write_to_pin>
}
 8000734:	e013      	b.n	800075e <smarthome_change_device_state+0x86>
			if((data & 0x60) == SMARTHOME_CODE_SWITCH_IRON)
 8000736:	88fb      	ldrh	r3, [r7, #6]
 8000738:	f003 0360 	and.w	r3, r3, #96	@ 0x60
 800073c:	2b40      	cmp	r3, #64	@ 0x40
 800073e:	d10e      	bne.n	800075e <smarthome_change_device_state+0x86>
				gpio_write_to_pin(SMARTHOME_SWITCHES, (data & 0x1E) >> 0x1, data & 0x1);
 8000740:	88fb      	ldrh	r3, [r7, #6]
 8000742:	105b      	asrs	r3, r3, #1
 8000744:	b29b      	uxth	r3, r3
 8000746:	f003 030f 	and.w	r3, r3, #15
 800074a:	b299      	uxth	r1, r3
 800074c:	88fb      	ldrh	r3, [r7, #6]
 800074e:	b2db      	uxtb	r3, r3
 8000750:	f003 0301 	and.w	r3, r3, #1
 8000754:	b2db      	uxtb	r3, r3
 8000756:	461a      	mov	r2, r3
 8000758:	4805      	ldr	r0, [pc, #20]	@ (8000770 <smarthome_change_device_state+0x98>)
 800075a:	f000 fb1d 	bl	8000d98 <gpio_write_to_pin>
}
 800075e:	bf00      	nop
 8000760:	3708      	adds	r7, #8
 8000762:	46bd      	mov	sp, r7
 8000764:	bd80      	pop	{r7, pc}
 8000766:	bf00      	nop
 8000768:	40020c00 	.word	0x40020c00
 800076c:	40020400 	.word	0x40020400
 8000770:	40021000 	.word	0x40021000

08000774 <smarthome_change_temperature>:

void smarthome_change_temperature(uint16_t data)
{
 8000774:	b480      	push	{r7}
 8000776:	b085      	sub	sp, #20
 8000778:	af00      	add	r7, sp, #0
 800077a:	4603      	mov	r3, r0
 800077c:	80fb      	strh	r3, [r7, #6]
	uint16_t temp = data & 0x7F;
 800077e:	88fb      	ldrh	r3, [r7, #6]
 8000780:	f003 037f 	and.w	r3, r3, #127	@ 0x7f
 8000784:	81fb      	strh	r3, [r7, #14]
	//send to DQ this temperature
}
 8000786:	bf00      	nop
 8000788:	3714      	adds	r7, #20
 800078a:	46bd      	mov	sp, r7
 800078c:	f85d 7b04 	ldr.w	r7, [sp], #4
 8000790:	4770      	bx	lr
	...

08000794 <smarthome_send_requested>:
	info = info >> 8;
	usart_transmit(USART1, info);
}

void smarthome_send_requested(uint16_t data)
{
 8000794:	b580      	push	{r7, lr}
 8000796:	b084      	sub	sp, #16
 8000798:	af00      	add	r7, sp, #0
 800079a:	4603      	mov	r3, r0
 800079c:	80fb      	strh	r3, [r7, #6]
	if(data == SMARTHOME_CODE_REQUEST_ALL)
 800079e:	88fb      	ldrh	r3, [r7, #6]
 80007a0:	f240 12ff 	movw	r2, #511	@ 0x1ff
 80007a4:	4293      	cmp	r3, r2
 80007a6:	f040 80ce 	bne.w	8000946 <smarthome_send_requested+0x1b2>
	{
		uint16_t code;
		for (uint16_t i = 0; i < 8; i++)
 80007aa:	2300      	movs	r3, #0
 80007ac:	81fb      	strh	r3, [r7, #14]
 80007ae:	e01f      	b.n	80007f0 <smarthome_send_requested+0x5c>
		{
			code = gpio_read_from_pin(SMARTHOME_LIGHTS, i);
 80007b0:	89fb      	ldrh	r3, [r7, #14]
 80007b2:	4619      	mov	r1, r3
 80007b4:	4866      	ldr	r0, [pc, #408]	@ (8000950 <smarthome_send_requested+0x1bc>)
 80007b6:	f000 fada 	bl	8000d6e <gpio_read_from_pin>
 80007ba:	4603      	mov	r3, r0
 80007bc:	813b      	strh	r3, [r7, #8]
			code = code | SMARTHOME_CODE_LIGHT_BEDROOM | (i*2);
 80007be:	89fb      	ldrh	r3, [r7, #14]
 80007c0:	005b      	lsls	r3, r3, #1
 80007c2:	b29b      	uxth	r3, r3
 80007c4:	b21a      	sxth	r2, r3
 80007c6:	f9b7 3008 	ldrsh.w	r3, [r7, #8]
 80007ca:	4313      	orrs	r3, r2
 80007cc:	b21b      	sxth	r3, r3
 80007ce:	813b      	strh	r3, [r7, #8]
			usart_transmit(USART1, code);
 80007d0:	893b      	ldrh	r3, [r7, #8]
 80007d2:	4619      	mov	r1, r3
 80007d4:	485f      	ldr	r0, [pc, #380]	@ (8000954 <smarthome_send_requested+0x1c0>)
 80007d6:	f001 f9f0 	bl	8001bba <usart_transmit>
			code = code >> 8;
 80007da:	893b      	ldrh	r3, [r7, #8]
 80007dc:	0a1b      	lsrs	r3, r3, #8
 80007de:	813b      	strh	r3, [r7, #8]
			usart_transmit(USART1, code);
 80007e0:	893b      	ldrh	r3, [r7, #8]
 80007e2:	4619      	mov	r1, r3
 80007e4:	485b      	ldr	r0, [pc, #364]	@ (8000954 <smarthome_send_requested+0x1c0>)
 80007e6:	f001 f9e8 	bl	8001bba <usart_transmit>
		for (uint16_t i = 0; i < 8; i++)
 80007ea:	89fb      	ldrh	r3, [r7, #14]
 80007ec:	3301      	adds	r3, #1
 80007ee:	81fb      	strh	r3, [r7, #14]
 80007f0:	89fb      	ldrh	r3, [r7, #14]
 80007f2:	2b07      	cmp	r3, #7
 80007f4:	d9dc      	bls.n	80007b0 <smarthome_send_requested+0x1c>
		}
		code = smarthome_temperature_read();
 80007f6:	f7ff fec5 	bl	8000584 <smarthome_temperature_read>
 80007fa:	4603      	mov	r3, r0
 80007fc:	813b      	strh	r3, [r7, #8]
		code = code | SMARTHOME_CODE_THERMOSTAT_TEMPERATURE;
 80007fe:	893b      	ldrh	r3, [r7, #8]
 8000800:	f043 0380 	orr.w	r3, r3, #128	@ 0x80
 8000804:	813b      	strh	r3, [r7, #8]
		usart_transmit(USART1, code);
 8000806:	893b      	ldrh	r3, [r7, #8]
 8000808:	4619      	mov	r1, r3
 800080a:	4852      	ldr	r0, [pc, #328]	@ (8000954 <smarthome_send_requested+0x1c0>)
 800080c:	f001 f9d5 	bl	8001bba <usart_transmit>
		code = code >> 8;
 8000810:	893b      	ldrh	r3, [r7, #8]
 8000812:	0a1b      	lsrs	r3, r3, #8
 8000814:	813b      	strh	r3, [r7, #8]
		usart_transmit(USART1, code);
 8000816:	893b      	ldrh	r3, [r7, #8]
 8000818:	4619      	mov	r1, r3
 800081a:	484e      	ldr	r0, [pc, #312]	@ (8000954 <smarthome_send_requested+0x1c0>)
 800081c:	f001 f9cd 	bl	8001bba <usart_transmit>
		code = gpio_read_from_pin(SMARTHOME_THERMOSTAT, 3);
 8000820:	2103      	movs	r1, #3
 8000822:	484d      	ldr	r0, [pc, #308]	@ (8000958 <smarthome_send_requested+0x1c4>)
 8000824:	f000 faa3 	bl	8000d6e <gpio_read_from_pin>
 8000828:	4603      	mov	r3, r0
 800082a:	813b      	strh	r3, [r7, #8]
		code = code | SMARTHOME_CODE_HIGH_TEMP;
 800082c:	893b      	ldrh	r3, [r7, #8]
 800082e:	f443 7300 	orr.w	r3, r3, #512	@ 0x200
 8000832:	f043 0302 	orr.w	r3, r3, #2
 8000836:	813b      	strh	r3, [r7, #8]
		usart_transmit(USART1, code);
 8000838:	893b      	ldrh	r3, [r7, #8]
 800083a:	4619      	mov	r1, r3
 800083c:	4845      	ldr	r0, [pc, #276]	@ (8000954 <smarthome_send_requested+0x1c0>)
 800083e:	f001 f9bc 	bl	8001bba <usart_transmit>
		code = code >> 8;
 8000842:	893b      	ldrh	r3, [r7, #8]
 8000844:	0a1b      	lsrs	r3, r3, #8
 8000846:	813b      	strh	r3, [r7, #8]
		usart_transmit(USART1, code);
 8000848:	893b      	ldrh	r3, [r7, #8]
 800084a:	4619      	mov	r1, r3
 800084c:	4841      	ldr	r0, [pc, #260]	@ (8000954 <smarthome_send_requested+0x1c0>)
 800084e:	f001 f9b4 	bl	8001bba <usart_transmit>
		code = gpio_read_from_pin(SMARTHOME_THERMOSTAT, 4);
 8000852:	2104      	movs	r1, #4
 8000854:	4840      	ldr	r0, [pc, #256]	@ (8000958 <smarthome_send_requested+0x1c4>)
 8000856:	f000 fa8a 	bl	8000d6e <gpio_read_from_pin>
 800085a:	4603      	mov	r3, r0
 800085c:	813b      	strh	r3, [r7, #8]
		code = code | SMARTHOME_CODE_LOW_TEMP;
 800085e:	893b      	ldrh	r3, [r7, #8]
 8000860:	f443 7301 	orr.w	r3, r3, #516	@ 0x204
 8000864:	813b      	strh	r3, [r7, #8]
		usart_transmit(USART1, code);
 8000866:	893b      	ldrh	r3, [r7, #8]
 8000868:	4619      	mov	r1, r3
 800086a:	483a      	ldr	r0, [pc, #232]	@ (8000954 <smarthome_send_requested+0x1c0>)
 800086c:	f001 f9a5 	bl	8001bba <usart_transmit>
		code = code >> 8;
 8000870:	893b      	ldrh	r3, [r7, #8]
 8000872:	0a1b      	lsrs	r3, r3, #8
 8000874:	813b      	strh	r3, [r7, #8]
		usart_transmit(USART1, code);
 8000876:	893b      	ldrh	r3, [r7, #8]
 8000878:	4619      	mov	r1, r3
 800087a:	4836      	ldr	r0, [pc, #216]	@ (8000954 <smarthome_send_requested+0x1c0>)
 800087c:	f001 f99d 	bl	8001bba <usart_transmit>
		for (uint16_t i = 0; i < 2; i++)
 8000880:	2300      	movs	r3, #0
 8000882:	81bb      	strh	r3, [r7, #12]
 8000884:	e01f      	b.n	80008c6 <smarthome_send_requested+0x132>
		{
			code = gpio_read_from_pin(SMARTHOME_DOORLOCKS, i);
 8000886:	89bb      	ldrh	r3, [r7, #12]
 8000888:	4619      	mov	r1, r3
 800088a:	4834      	ldr	r0, [pc, #208]	@ (800095c <smarthome_send_requested+0x1c8>)
 800088c:	f000 fa6f 	bl	8000d6e <gpio_read_from_pin>
 8000890:	4603      	mov	r3, r0
 8000892:	813b      	strh	r3, [r7, #8]
			code = code | SMARTHOME_CODE_DOORLOCK_FRONT | (i*2);
 8000894:	89bb      	ldrh	r3, [r7, #12]
 8000896:	005b      	lsls	r3, r3, #1
 8000898:	b29a      	uxth	r2, r3
 800089a:	893b      	ldrh	r3, [r7, #8]
 800089c:	4313      	orrs	r3, r2
 800089e:	b29b      	uxth	r3, r3
 80008a0:	f043 0320 	orr.w	r3, r3, #32
 80008a4:	813b      	strh	r3, [r7, #8]
			usart_transmit(USART1, code);
 80008a6:	893b      	ldrh	r3, [r7, #8]
 80008a8:	4619      	mov	r1, r3
 80008aa:	482a      	ldr	r0, [pc, #168]	@ (8000954 <smarthome_send_requested+0x1c0>)
 80008ac:	f001 f985 	bl	8001bba <usart_transmit>
			code = code >> 8;
 80008b0:	893b      	ldrh	r3, [r7, #8]
 80008b2:	0a1b      	lsrs	r3, r3, #8
 80008b4:	813b      	strh	r3, [r7, #8]
			usart_transmit(USART1, code);
 80008b6:	893b      	ldrh	r3, [r7, #8]
 80008b8:	4619      	mov	r1, r3
 80008ba:	4826      	ldr	r0, [pc, #152]	@ (8000954 <smarthome_send_requested+0x1c0>)
 80008bc:	f001 f97d 	bl	8001bba <usart_transmit>
		for (uint16_t i = 0; i < 2; i++)
 80008c0:	89bb      	ldrh	r3, [r7, #12]
 80008c2:	3301      	adds	r3, #1
 80008c4:	81bb      	strh	r3, [r7, #12]
 80008c6:	89bb      	ldrh	r3, [r7, #12]
 80008c8:	2b01      	cmp	r3, #1
 80008ca:	d9dc      	bls.n	8000886 <smarthome_send_requested+0xf2>
		}
		for (uint16_t i = 0; i < 10; i++)
 80008cc:	2300      	movs	r3, #0
 80008ce:	817b      	strh	r3, [r7, #10]
 80008d0:	e01f      	b.n	8000912 <smarthome_send_requested+0x17e>
		{
			code = gpio_read_from_pin(SMARTHOME_SWITCHES, i);
 80008d2:	897b      	ldrh	r3, [r7, #10]
 80008d4:	4619      	mov	r1, r3
 80008d6:	4822      	ldr	r0, [pc, #136]	@ (8000960 <smarthome_send_requested+0x1cc>)
 80008d8:	f000 fa49 	bl	8000d6e <gpio_read_from_pin>
 80008dc:	4603      	mov	r3, r0
 80008de:	813b      	strh	r3, [r7, #8]
			code = code | SMARTHOME_CODE_SWITCH_IRON | (i*2);
 80008e0:	897b      	ldrh	r3, [r7, #10]
 80008e2:	005b      	lsls	r3, r3, #1
 80008e4:	b29a      	uxth	r2, r3
 80008e6:	893b      	ldrh	r3, [r7, #8]
 80008e8:	4313      	orrs	r3, r2
 80008ea:	b29b      	uxth	r3, r3
 80008ec:	f043 0340 	orr.w	r3, r3, #64	@ 0x40
 80008f0:	813b      	strh	r3, [r7, #8]
			usart_transmit(USART1, code);
 80008f2:	893b      	ldrh	r3, [r7, #8]
 80008f4:	4619      	mov	r1, r3
 80008f6:	4817      	ldr	r0, [pc, #92]	@ (8000954 <smarthome_send_requested+0x1c0>)
 80008f8:	f001 f95f 	bl	8001bba <usart_transmit>
			code = code >> 8;
 80008fc:	893b      	ldrh	r3, [r7, #8]
 80008fe:	0a1b      	lsrs	r3, r3, #8
 8000900:	813b      	strh	r3, [r7, #8]
			usart_transmit(USART1, code);
 8000902:	893b      	ldrh	r3, [r7, #8]
 8000904:	4619      	mov	r1, r3
 8000906:	4813      	ldr	r0, [pc, #76]	@ (8000954 <smarthome_send_requested+0x1c0>)
 8000908:	f001 f957 	bl	8001bba <usart_transmit>
		for (uint16_t i = 0; i < 10; i++)
 800090c:	897b      	ldrh	r3, [r7, #10]
 800090e:	3301      	adds	r3, #1
 8000910:	817b      	strh	r3, [r7, #10]
 8000912:	897b      	ldrh	r3, [r7, #10]
 8000914:	2b09      	cmp	r3, #9
 8000916:	d9dc      	bls.n	80008d2 <smarthome_send_requested+0x13e>
		}
		code = gpio_read_from_pin(SMARTHOME_ALARMS, 0);
 8000918:	2100      	movs	r1, #0
 800091a:	4812      	ldr	r0, [pc, #72]	@ (8000964 <smarthome_send_requested+0x1d0>)
 800091c:	f000 fa27 	bl	8000d6e <gpio_read_from_pin>
 8000920:	4603      	mov	r3, r0
 8000922:	813b      	strh	r3, [r7, #8]
		code = code | SMARTHOME_CODE_SMOKE;
 8000924:	893b      	ldrh	r3, [r7, #8]
 8000926:	f443 7300 	orr.w	r3, r3, #512	@ 0x200
 800092a:	813b      	strh	r3, [r7, #8]
		usart_transmit(USART1, code);
 800092c:	893b      	ldrh	r3, [r7, #8]
 800092e:	4619      	mov	r1, r3
 8000930:	4808      	ldr	r0, [pc, #32]	@ (8000954 <smarthome_send_requested+0x1c0>)
 8000932:	f001 f942 	bl	8001bba <usart_transmit>
		code = code >> 8;
 8000936:	893b      	ldrh	r3, [r7, #8]
 8000938:	0a1b      	lsrs	r3, r3, #8
 800093a:	813b      	strh	r3, [r7, #8]
		usart_transmit(USART1, code);
 800093c:	893b      	ldrh	r3, [r7, #8]
 800093e:	4619      	mov	r1, r3
 8000940:	4804      	ldr	r0, [pc, #16]	@ (8000954 <smarthome_send_requested+0x1c0>)
 8000942:	f001 f93a 	bl	8001bba <usart_transmit>
	}
	else
	{

	}
}
 8000946:	bf00      	nop
 8000948:	3710      	adds	r7, #16
 800094a:	46bd      	mov	sp, r7
 800094c:	bd80      	pop	{r7, pc}
 800094e:	bf00      	nop
 8000950:	40020c00 	.word	0x40020c00
 8000954:	40011000 	.word	0x40011000
 8000958:	40020000 	.word	0x40020000
 800095c:	40020400 	.word	0x40020400
 8000960:	40021000 	.word	0x40021000
 8000964:	40020800 	.word	0x40020800

08000968 <USART1_IRQHandler>:

void USART1_IRQHandler(void)
{
 8000968:	b580      	push	{r7, lr}
 800096a:	b082      	sub	sp, #8
 800096c:	af00      	add	r7, sp, #0
	uint16_t data = usart_receive(USART1);
 800096e:	4811      	ldr	r0, [pc, #68]	@ (80009b4 <USART1_IRQHandler+0x4c>)
 8000970:	f001 f939 	bl	8001be6 <usart_receive>
 8000974:	4603      	mov	r3, r0
 8000976:	80fb      	strh	r3, [r7, #6]
	data = data | (usart_receive(USART1) << 8);
 8000978:	480e      	ldr	r0, [pc, #56]	@ (80009b4 <USART1_IRQHandler+0x4c>)
 800097a:	f001 f934 	bl	8001be6 <usart_receive>
 800097e:	4603      	mov	r3, r0
 8000980:	021b      	lsls	r3, r3, #8
 8000982:	b21a      	sxth	r2, r3
 8000984:	f9b7 3006 	ldrsh.w	r3, [r7, #6]
 8000988:	4313      	orrs	r3, r2
 800098a:	b21b      	sxth	r3, r3
 800098c:	80fb      	strh	r3, [r7, #6]

	if(data & 0x100)
 800098e:	88fb      	ldrh	r3, [r7, #6]
 8000990:	f403 7380 	and.w	r3, r3, #256	@ 0x100
 8000994:	2b00      	cmp	r3, #0
 8000996:	d004      	beq.n	80009a2 <USART1_IRQHandler+0x3a>
	{
		smarthome_send_requested(data);
 8000998:	88fb      	ldrh	r3, [r7, #6]
 800099a:	4618      	mov	r0, r3
 800099c:	f7ff fefa 	bl	8000794 <smarthome_send_requested>
	}
	else
	{
		smarthome_change_state(data);
	}
}
 80009a0:	e003      	b.n	80009aa <USART1_IRQHandler+0x42>
		smarthome_change_state(data);
 80009a2:	88fb      	ldrh	r3, [r7, #6]
 80009a4:	4618      	mov	r0, r3
 80009a6:	f7ff fe7f 	bl	80006a8 <smarthome_change_state>
}
 80009aa:	bf00      	nop
 80009ac:	3708      	adds	r7, #8
 80009ae:	46bd      	mov	sp, r7
 80009b0:	bd80      	pop	{r7, pc}
 80009b2:	bf00      	nop
 80009b4:	40011000 	.word	0x40011000

080009b8 <EXTI0_IRQHandler>:

void EXTI0_IRQHandler(void)
{
 80009b8:	b580      	push	{r7, lr}
 80009ba:	b082      	sub	sp, #8
 80009bc:	af00      	add	r7, sp, #0
	uint16_t warning = gpio_read_from_pin(SMARTHOME_ALARMS, SMARTHOME_ALARM_SMOKE);
 80009be:	2100      	movs	r1, #0
 80009c0:	4808      	ldr	r0, [pc, #32]	@ (80009e4 <EXTI0_IRQHandler+0x2c>)
 80009c2:	f000 f9d4 	bl	8000d6e <gpio_read_from_pin>
 80009c6:	4603      	mov	r3, r0
 80009c8:	80fb      	strh	r3, [r7, #6]
	usart_transmit(USART1, SMARTHOME_CODE_SMOKE & warning);
 80009ca:	88fb      	ldrh	r3, [r7, #6]
 80009cc:	f403 7300 	and.w	r3, r3, #512	@ 0x200
 80009d0:	b29b      	uxth	r3, r3
 80009d2:	4619      	mov	r1, r3
 80009d4:	4804      	ldr	r0, [pc, #16]	@ (80009e8 <EXTI0_IRQHandler+0x30>)
 80009d6:	f001 f8f0 	bl	8001bba <usart_transmit>
}
 80009da:	bf00      	nop
 80009dc:	3708      	adds	r7, #8
 80009de:	46bd      	mov	sp, r7
 80009e0:	bd80      	pop	{r7, pc}
 80009e2:	bf00      	nop
 80009e4:	40020800 	.word	0x40020800
 80009e8:	40011000 	.word	0x40011000

080009ec <EXTI3_IRQHandler>:

void EXTI3_IRQHandler(void)
{
 80009ec:	b580      	push	{r7, lr}
 80009ee:	b082      	sub	sp, #8
 80009f0:	af00      	add	r7, sp, #0
	uint16_t warning = gpio_read_from_pin(SMARTHOME_THERMOSTAT, SMARTHOME_THERMOSTAT_THIGH);
 80009f2:	2103      	movs	r1, #3
 80009f4:	480a      	ldr	r0, [pc, #40]	@ (8000a20 <EXTI3_IRQHandler+0x34>)
 80009f6:	f000 f9ba 	bl	8000d6e <gpio_read_from_pin>
 80009fa:	4603      	mov	r3, r0
 80009fc:	80fb      	strh	r3, [r7, #6]
	usart_transmit(USART1, SMARTHOME_CODE_HIGH_TEMP & warning);
 80009fe:	88fb      	ldrh	r3, [r7, #6]
 8000a00:	f423 73fe 	bic.w	r3, r3, #508	@ 0x1fc
 8000a04:	f023 0301 	bic.w	r3, r3, #1
 8000a08:	059b      	lsls	r3, r3, #22
 8000a0a:	0d9b      	lsrs	r3, r3, #22
 8000a0c:	b29b      	uxth	r3, r3
 8000a0e:	4619      	mov	r1, r3
 8000a10:	4804      	ldr	r0, [pc, #16]	@ (8000a24 <EXTI3_IRQHandler+0x38>)
 8000a12:	f001 f8d2 	bl	8001bba <usart_transmit>
}
 8000a16:	bf00      	nop
 8000a18:	3708      	adds	r7, #8
 8000a1a:	46bd      	mov	sp, r7
 8000a1c:	bd80      	pop	{r7, pc}
 8000a1e:	bf00      	nop
 8000a20:	40020000 	.word	0x40020000
 8000a24:	40011000 	.word	0x40011000

08000a28 <EXTI4_IRQHandler>:

void EXTI4_IRQHandler(void)
{
 8000a28:	b580      	push	{r7, lr}
 8000a2a:	b082      	sub	sp, #8
 8000a2c:	af00      	add	r7, sp, #0
	uint16_t warning = gpio_read_from_pin(SMARTHOME_THERMOSTAT, SMARTHOME_THERMOSTAT_TLOW);
 8000a2e:	2104      	movs	r1, #4
 8000a30:	4808      	ldr	r0, [pc, #32]	@ (8000a54 <EXTI4_IRQHandler+0x2c>)
 8000a32:	f000 f99c 	bl	8000d6e <gpio_read_from_pin>
 8000a36:	4603      	mov	r3, r0
 8000a38:	80fb      	strh	r3, [r7, #6]
	usart_transmit(USART1, SMARTHOME_CODE_LOW_TEMP & warning);
 8000a3a:	88fb      	ldrh	r3, [r7, #6]
 8000a3c:	f403 7301 	and.w	r3, r3, #516	@ 0x204
 8000a40:	b29b      	uxth	r3, r3
 8000a42:	4619      	mov	r1, r3
 8000a44:	4804      	ldr	r0, [pc, #16]	@ (8000a58 <EXTI4_IRQHandler+0x30>)
 8000a46:	f001 f8b8 	bl	8001bba <usart_transmit>
}
 8000a4a:	bf00      	nop
 8000a4c:	3708      	adds	r7, #8
 8000a4e:	46bd      	mov	sp, r7
 8000a50:	bd80      	pop	{r7, pc}
 8000a52:	bf00      	nop
 8000a54:	40020000 	.word	0x40020000
 8000a58:	40011000 	.word	0x40011000

08000a5c <main>:
/**
  * @brief  The application entry point.
  * @retval int
  */
int main(void)
{
 8000a5c:	b580      	push	{r7, lr}
 8000a5e:	af00      	add	r7, sp, #0
  /* USER CODE BEGIN Init */

  /* USER CODE END Init */

  /* Configure the system clock */
  SystemClock_Config();
 8000a60:	f000 f806 	bl	8000a70 <SystemClock_Config>
  usart1.psc = 0x00;
  usart_configure(&usart1);
  uint16_t data;*/


  smarthome_initialize();
 8000a64:	f7ff fbb6 	bl	80001d4 <smarthome_initialize>
  smarthome_configure_interrupts();
 8000a68:	f7ff fd58 	bl	800051c <smarthome_configure_interrupts>

  while (1)
 8000a6c:	bf00      	nop
 8000a6e:	e7fd      	b.n	8000a6c <main+0x10>

08000a70 <SystemClock_Config>:
/**
  * @brief System Clock Configuration
  * @retval None
  */
void SystemClock_Config(void)
{
 8000a70:	b480      	push	{r7}
 8000a72:	af00      	add	r7, sp, #0

  if (HAL_RCC_ClockConfig(&RCC_ClkInitStruct, FLASH_LATENCY_0) != HAL_OK)
  {
    Error_Handler();
  }*/
}
 8000a74:	bf00      	nop
 8000a76:	46bd      	mov	sp, r7
 8000a78:	f85d 7b04 	ldr.w	r7, [sp], #4
 8000a7c:	4770      	bx	lr
	...

08000a80 <SystemInit>:
  *         configuration.
  * @param  None
  * @retval None
  */
void SystemInit(void)
{
 8000a80:	b480      	push	{r7}
 8000a82:	af00      	add	r7, sp, #0
  /* FPU settings ------------------------------------------------------------*/
  #if (__FPU_PRESENT == 1) && (__FPU_USED == 1)
    SCB->CPACR |= ((3UL << 10*2)|(3UL << 11*2));  /* set CP10 and CP11 Full Access */
 8000a84:	4b06      	ldr	r3, [pc, #24]	@ (8000aa0 <SystemInit+0x20>)
 8000a86:	f8d3 3088 	ldr.w	r3, [r3, #136]	@ 0x88
 8000a8a:	4a05      	ldr	r2, [pc, #20]	@ (8000aa0 <SystemInit+0x20>)
 8000a8c:	f443 0370 	orr.w	r3, r3, #15728640	@ 0xf00000
 8000a90:	f8c2 3088 	str.w	r3, [r2, #136]	@ 0x88

  /* Configure the Vector Table location -------------------------------------*/
#if defined(USER_VECT_TAB_ADDRESS)
  SCB->VTOR = VECT_TAB_BASE_ADDRESS | VECT_TAB_OFFSET; /* Vector Table Relocation in Internal SRAM */
#endif /* USER_VECT_TAB_ADDRESS */
}
 8000a94:	bf00      	nop
 8000a96:	46bd      	mov	sp, r7
 8000a98:	f85d 7b04 	ldr.w	r7, [sp], #4
 8000a9c:	4770      	bx	lr
 8000a9e:	bf00      	nop
 8000aa0:	e000ed00 	.word	0xe000ed00

08000aa4 <Reset_Handler>:

    .section  .text.Reset_Handler
  .weak  Reset_Handler
  .type  Reset_Handler, %function
Reset_Handler:  
  ldr   sp, =_estack    		 /* set stack pointer */
 8000aa4:	f8df d034 	ldr.w	sp, [pc, #52]	@ 8000adc <LoopFillZerobss+0xe>

/* Call the clock system initialization function.*/
  bl  SystemInit  
 8000aa8:	f7ff ffea 	bl	8000a80 <SystemInit>

/* Copy the data segment initializers from flash to SRAM */  
  ldr r0, =_sdata
 8000aac:	480c      	ldr	r0, [pc, #48]	@ (8000ae0 <LoopFillZerobss+0x12>)
  ldr r1, =_edata
 8000aae:	490d      	ldr	r1, [pc, #52]	@ (8000ae4 <LoopFillZerobss+0x16>)
  ldr r2, =_sidata
 8000ab0:	4a0d      	ldr	r2, [pc, #52]	@ (8000ae8 <LoopFillZerobss+0x1a>)
  movs r3, #0
 8000ab2:	2300      	movs	r3, #0
  b LoopCopyDataInit
 8000ab4:	e002      	b.n	8000abc <LoopCopyDataInit>

08000ab6 <CopyDataInit>:

CopyDataInit:
  ldr r4, [r2, r3]
 8000ab6:	58d4      	ldr	r4, [r2, r3]
  str r4, [r0, r3]
 8000ab8:	50c4      	str	r4, [r0, r3]
  adds r3, r3, #4
 8000aba:	3304      	adds	r3, #4

08000abc <LoopCopyDataInit>:

LoopCopyDataInit:
  adds r4, r0, r3
 8000abc:	18c4      	adds	r4, r0, r3
  cmp r4, r1
 8000abe:	428c      	cmp	r4, r1
  bcc CopyDataInit
 8000ac0:	d3f9      	bcc.n	8000ab6 <CopyDataInit>
  
/* Zero fill the bss segment. */
  ldr r2, =_sbss
 8000ac2:	4a0a      	ldr	r2, [pc, #40]	@ (8000aec <LoopFillZerobss+0x1e>)
  ldr r4, =_ebss
 8000ac4:	4c0a      	ldr	r4, [pc, #40]	@ (8000af0 <LoopFillZerobss+0x22>)
  movs r3, #0
 8000ac6:	2300      	movs	r3, #0
  b LoopFillZerobss
 8000ac8:	e001      	b.n	8000ace <LoopFillZerobss>

08000aca <FillZerobss>:

FillZerobss:
  str  r3, [r2]
 8000aca:	6013      	str	r3, [r2, #0]
  adds r2, r2, #4
 8000acc:	3204      	adds	r2, #4

08000ace <LoopFillZerobss>:

LoopFillZerobss:
  cmp r2, r4
 8000ace:	42a2      	cmp	r2, r4
  bcc FillZerobss
 8000ad0:	d3fb      	bcc.n	8000aca <FillZerobss>
 
/* Call static constructors */
    bl __libc_init_array
 8000ad2:	f001 f8a9 	bl	8001c28 <__libc_init_array>
/* Call the application's entry point.*/
  bl  main
 8000ad6:	f7ff ffc1 	bl	8000a5c <main>
  bx  lr    
 8000ada:	4770      	bx	lr
  ldr   sp, =_estack    		 /* set stack pointer */
 8000adc:	20018000 	.word	0x20018000
  ldr r0, =_sdata
 8000ae0:	20000000 	.word	0x20000000
  ldr r1, =_edata
 8000ae4:	20000000 	.word	0x20000000
  ldr r2, =_sidata
 8000ae8:	08001c90 	.word	0x08001c90
  ldr r2, =_sbss
 8000aec:	20000000 	.word	0x20000000
  ldr r4, =_ebss
 8000af0:	2000001c 	.word	0x2000001c

08000af4 <ADC_IRQHandler>:
 * @retval None       
*/
    .section  .text.Default_Handler,"ax",%progbits
Default_Handler:
Infinite_Loop:
  b  Infinite_Loop
 8000af4:	e7fe      	b.n	8000af4 <ADC_IRQHandler>
	...

08000af8 <__NVIC_EnableIRQ>:
  \details Enables a device specific interrupt in the NVIC interrupt controller.
  \param [in]      IRQn  Device specific interrupt number.
  \note    IRQn must not be negative.
 */
__STATIC_INLINE void __NVIC_EnableIRQ(IRQn_Type IRQn)
{
 8000af8:	b480      	push	{r7}
 8000afa:	b083      	sub	sp, #12
 8000afc:	af00      	add	r7, sp, #0
 8000afe:	4603      	mov	r3, r0
 8000b00:	71fb      	strb	r3, [r7, #7]
  if ((int32_t)(IRQn) >= 0)
 8000b02:	f997 3007 	ldrsb.w	r3, [r7, #7]
 8000b06:	2b00      	cmp	r3, #0
 8000b08:	db0b      	blt.n	8000b22 <__NVIC_EnableIRQ+0x2a>
  {
    __COMPILER_BARRIER();
    NVIC->ISER[(((uint32_t)IRQn) >> 5UL)] = (uint32_t)(1UL << (((uint32_t)IRQn) & 0x1FUL));
 8000b0a:	79fb      	ldrb	r3, [r7, #7]
 8000b0c:	f003 021f 	and.w	r2, r3, #31
 8000b10:	4907      	ldr	r1, [pc, #28]	@ (8000b30 <__NVIC_EnableIRQ+0x38>)
 8000b12:	f997 3007 	ldrsb.w	r3, [r7, #7]
 8000b16:	095b      	lsrs	r3, r3, #5
 8000b18:	2001      	movs	r0, #1
 8000b1a:	fa00 f202 	lsl.w	r2, r0, r2
 8000b1e:	f841 2023 	str.w	r2, [r1, r3, lsl #2]
    __COMPILER_BARRIER();
  }
}
 8000b22:	bf00      	nop
 8000b24:	370c      	adds	r7, #12
 8000b26:	46bd      	mov	sp, r7
 8000b28:	f85d 7b04 	ldr.w	r7, [sp], #4
 8000b2c:	4770      	bx	lr
 8000b2e:	bf00      	nop
 8000b30:	e000e100 	.word	0xe000e100

08000b34 <gpio_init>:
}

//**************************************GPIO PIN CONFIGURATION FUNCTIONS****************************************

int gpio_init(GPIO_TypeDef* port, gpio_pin* pin)
{
 8000b34:	b580      	push	{r7, lr}
 8000b36:	b082      	sub	sp, #8
 8000b38:	af00      	add	r7, sp, #0
 8000b3a:	6078      	str	r0, [r7, #4]
 8000b3c:	6039      	str	r1, [r7, #0]
	if(gpio_configure_pin_mode(port, pin->pin, pin->mode) != 0)
 8000b3e:	683b      	ldr	r3, [r7, #0]
 8000b40:	681b      	ldr	r3, [r3, #0]
 8000b42:	b299      	uxth	r1, r3
 8000b44:	683b      	ldr	r3, [r7, #0]
 8000b46:	685b      	ldr	r3, [r3, #4]
 8000b48:	461a      	mov	r2, r3
 8000b4a:	6878      	ldr	r0, [r7, #4]
 8000b4c:	f000 f847 	bl	8000bde <gpio_configure_pin_mode>
 8000b50:	4603      	mov	r3, r0
 8000b52:	2b00      	cmp	r3, #0
 8000b54:	d002      	beq.n	8000b5c <gpio_init+0x28>
	{
		return -1;
 8000b56:	f04f 33ff 	mov.w	r3, #4294967295
 8000b5a:	e03c      	b.n	8000bd6 <gpio_init+0xa2>
	}
	if(gpio_configure_pin_output_type(port, pin->pin, pin->output_type) != 0)
 8000b5c:	683b      	ldr	r3, [r7, #0]
 8000b5e:	681b      	ldr	r3, [r3, #0]
 8000b60:	b299      	uxth	r1, r3
 8000b62:	683b      	ldr	r3, [r7, #0]
 8000b64:	689b      	ldr	r3, [r3, #8]
 8000b66:	461a      	mov	r2, r3
 8000b68:	6878      	ldr	r0, [r7, #4]
 8000b6a:	f000 f85b 	bl	8000c24 <gpio_configure_pin_output_type>
 8000b6e:	4603      	mov	r3, r0
 8000b70:	2b00      	cmp	r3, #0
 8000b72:	d002      	beq.n	8000b7a <gpio_init+0x46>
	{
		return -1;
 8000b74:	f04f 33ff 	mov.w	r3, #4294967295
 8000b78:	e02d      	b.n	8000bd6 <gpio_init+0xa2>
	}
	if(gpio_configure_pin_output_speed(port, pin->pin, pin->output_speed) != 0)
 8000b7a:	683b      	ldr	r3, [r7, #0]
 8000b7c:	681b      	ldr	r3, [r3, #0]
 8000b7e:	b299      	uxth	r1, r3
 8000b80:	683b      	ldr	r3, [r7, #0]
 8000b82:	68db      	ldr	r3, [r3, #12]
 8000b84:	461a      	mov	r2, r3
 8000b86:	6878      	ldr	r0, [r7, #4]
 8000b88:	f000 f86d 	bl	8000c66 <gpio_configure_pin_output_speed>
 8000b8c:	4603      	mov	r3, r0
 8000b8e:	2b00      	cmp	r3, #0
 8000b90:	d002      	beq.n	8000b98 <gpio_init+0x64>
	{
		return -1;
 8000b92:	f04f 33ff 	mov.w	r3, #4294967295
 8000b96:	e01e      	b.n	8000bd6 <gpio_init+0xa2>
	}
	if(gpio_configure_pin_pull(port, pin->pin, pin->pull) != 0)
 8000b98:	683b      	ldr	r3, [r7, #0]
 8000b9a:	681b      	ldr	r3, [r3, #0]
 8000b9c:	b299      	uxth	r1, r3
 8000b9e:	683b      	ldr	r3, [r7, #0]
 8000ba0:	691b      	ldr	r3, [r3, #16]
 8000ba2:	461a      	mov	r2, r3
 8000ba4:	6878      	ldr	r0, [r7, #4]
 8000ba6:	f000 f881 	bl	8000cac <gpio_configure_pin_pull>
 8000baa:	4603      	mov	r3, r0
 8000bac:	2b00      	cmp	r3, #0
 8000bae:	d002      	beq.n	8000bb6 <gpio_init+0x82>
	{
		return -1;
 8000bb0:	f04f 33ff 	mov.w	r3, #4294967295
 8000bb4:	e00f      	b.n	8000bd6 <gpio_init+0xa2>
	}
	if(gpio_configure_pin_alternate_function(port, pin->pin, pin->alternate_function) != 0)
 8000bb6:	683b      	ldr	r3, [r7, #0]
 8000bb8:	681b      	ldr	r3, [r3, #0]
 8000bba:	b299      	uxth	r1, r3
 8000bbc:	683b      	ldr	r3, [r7, #0]
 8000bbe:	695b      	ldr	r3, [r3, #20]
 8000bc0:	461a      	mov	r2, r3
 8000bc2:	6878      	ldr	r0, [r7, #4]
 8000bc4:	f000 f895 	bl	8000cf2 <gpio_configure_pin_alternate_function>
 8000bc8:	4603      	mov	r3, r0
 8000bca:	2b00      	cmp	r3, #0
 8000bcc:	d002      	beq.n	8000bd4 <gpio_init+0xa0>
	{
		return -1;
 8000bce:	f04f 33ff 	mov.w	r3, #4294967295
 8000bd2:	e000      	b.n	8000bd6 <gpio_init+0xa2>
	}
	return 0;
 8000bd4:	2300      	movs	r3, #0
}
 8000bd6:	4618      	mov	r0, r3
 8000bd8:	3708      	adds	r7, #8
 8000bda:	46bd      	mov	sp, r7
 8000bdc:	bd80      	pop	{r7, pc}

08000bde <gpio_configure_pin_mode>:

int gpio_configure_pin_mode(GPIO_TypeDef* port, uint16_t pin, uint32_t mode)
{
 8000bde:	b480      	push	{r7}
 8000be0:	b085      	sub	sp, #20
 8000be2:	af00      	add	r7, sp, #0
 8000be4:	60f8      	str	r0, [r7, #12]
 8000be6:	460b      	mov	r3, r1
 8000be8:	607a      	str	r2, [r7, #4]
 8000bea:	817b      	strh	r3, [r7, #10]
	port->MODER = port->MODER & ~(0x00000003 << (pin*2));
 8000bec:	68fb      	ldr	r3, [r7, #12]
 8000bee:	681b      	ldr	r3, [r3, #0]
 8000bf0:	897a      	ldrh	r2, [r7, #10]
 8000bf2:	0052      	lsls	r2, r2, #1
 8000bf4:	2103      	movs	r1, #3
 8000bf6:	fa01 f202 	lsl.w	r2, r1, r2
 8000bfa:	43d2      	mvns	r2, r2
 8000bfc:	401a      	ands	r2, r3
 8000bfe:	68fb      	ldr	r3, [r7, #12]
 8000c00:	601a      	str	r2, [r3, #0]
	port->MODER = port->MODER | (mode << (pin*2));
 8000c02:	68fb      	ldr	r3, [r7, #12]
 8000c04:	681a      	ldr	r2, [r3, #0]
 8000c06:	897b      	ldrh	r3, [r7, #10]
 8000c08:	005b      	lsls	r3, r3, #1
 8000c0a:	6879      	ldr	r1, [r7, #4]
 8000c0c:	fa01 f303 	lsl.w	r3, r1, r3
 8000c10:	431a      	orrs	r2, r3
 8000c12:	68fb      	ldr	r3, [r7, #12]
 8000c14:	601a      	str	r2, [r3, #0]

	return 0;
 8000c16:	2300      	movs	r3, #0
}
 8000c18:	4618      	mov	r0, r3
 8000c1a:	3714      	adds	r7, #20
 8000c1c:	46bd      	mov	sp, r7
 8000c1e:	f85d 7b04 	ldr.w	r7, [sp], #4
 8000c22:	4770      	bx	lr

08000c24 <gpio_configure_pin_output_type>:

int gpio_configure_pin_output_type(GPIO_TypeDef* port, uint16_t pin, uint32_t type)
{
 8000c24:	b480      	push	{r7}
 8000c26:	b085      	sub	sp, #20
 8000c28:	af00      	add	r7, sp, #0
 8000c2a:	60f8      	str	r0, [r7, #12]
 8000c2c:	460b      	mov	r3, r1
 8000c2e:	607a      	str	r2, [r7, #4]
 8000c30:	817b      	strh	r3, [r7, #10]
	port->OTYPER = port->OTYPER & ~(0x00000001 << pin);
 8000c32:	68fb      	ldr	r3, [r7, #12]
 8000c34:	685b      	ldr	r3, [r3, #4]
 8000c36:	897a      	ldrh	r2, [r7, #10]
 8000c38:	2101      	movs	r1, #1
 8000c3a:	fa01 f202 	lsl.w	r2, r1, r2
 8000c3e:	43d2      	mvns	r2, r2
 8000c40:	401a      	ands	r2, r3
 8000c42:	68fb      	ldr	r3, [r7, #12]
 8000c44:	605a      	str	r2, [r3, #4]
	port->OTYPER = port->OTYPER | (type << pin);
 8000c46:	68fb      	ldr	r3, [r7, #12]
 8000c48:	685a      	ldr	r2, [r3, #4]
 8000c4a:	897b      	ldrh	r3, [r7, #10]
 8000c4c:	6879      	ldr	r1, [r7, #4]
 8000c4e:	fa01 f303 	lsl.w	r3, r1, r3
 8000c52:	431a      	orrs	r2, r3
 8000c54:	68fb      	ldr	r3, [r7, #12]
 8000c56:	605a      	str	r2, [r3, #4]

	return 0;
 8000c58:	2300      	movs	r3, #0
}
 8000c5a:	4618      	mov	r0, r3
 8000c5c:	3714      	adds	r7, #20
 8000c5e:	46bd      	mov	sp, r7
 8000c60:	f85d 7b04 	ldr.w	r7, [sp], #4
 8000c64:	4770      	bx	lr

08000c66 <gpio_configure_pin_output_speed>:

int gpio_configure_pin_output_speed(GPIO_TypeDef* port, uint16_t pin, uint32_t speed)
{
 8000c66:	b480      	push	{r7}
 8000c68:	b085      	sub	sp, #20
 8000c6a:	af00      	add	r7, sp, #0
 8000c6c:	60f8      	str	r0, [r7, #12]
 8000c6e:	460b      	mov	r3, r1
 8000c70:	607a      	str	r2, [r7, #4]
 8000c72:	817b      	strh	r3, [r7, #10]
	port->OSPEEDR = port->OSPEEDR & ~(0x00000003 << (pin*2));
 8000c74:	68fb      	ldr	r3, [r7, #12]
 8000c76:	689b      	ldr	r3, [r3, #8]
 8000c78:	897a      	ldrh	r2, [r7, #10]
 8000c7a:	0052      	lsls	r2, r2, #1
 8000c7c:	2103      	movs	r1, #3
 8000c7e:	fa01 f202 	lsl.w	r2, r1, r2
 8000c82:	43d2      	mvns	r2, r2
 8000c84:	401a      	ands	r2, r3
 8000c86:	68fb      	ldr	r3, [r7, #12]
 8000c88:	609a      	str	r2, [r3, #8]
	port->OSPEEDR = port->OSPEEDR | (speed << (pin*2));
 8000c8a:	68fb      	ldr	r3, [r7, #12]
 8000c8c:	689a      	ldr	r2, [r3, #8]
 8000c8e:	897b      	ldrh	r3, [r7, #10]
 8000c90:	005b      	lsls	r3, r3, #1
 8000c92:	6879      	ldr	r1, [r7, #4]
 8000c94:	fa01 f303 	lsl.w	r3, r1, r3
 8000c98:	431a      	orrs	r2, r3
 8000c9a:	68fb      	ldr	r3, [r7, #12]
 8000c9c:	609a      	str	r2, [r3, #8]

	return 0;
 8000c9e:	2300      	movs	r3, #0
}
 8000ca0:	4618      	mov	r0, r3
 8000ca2:	3714      	adds	r7, #20
 8000ca4:	46bd      	mov	sp, r7
 8000ca6:	f85d 7b04 	ldr.w	r7, [sp], #4
 8000caa:	4770      	bx	lr

08000cac <gpio_configure_pin_pull>:

int gpio_configure_pin_pull(GPIO_TypeDef* port, uint16_t pin, uint32_t pull)
{
 8000cac:	b480      	push	{r7}
 8000cae:	b085      	sub	sp, #20
 8000cb0:	af00      	add	r7, sp, #0
 8000cb2:	60f8      	str	r0, [r7, #12]
 8000cb4:	460b      	mov	r3, r1
 8000cb6:	607a      	str	r2, [r7, #4]
 8000cb8:	817b      	strh	r3, [r7, #10]
	port->PUPDR = port->PUPDR & ~(0x00000003 << (pin*2));
 8000cba:	68fb      	ldr	r3, [r7, #12]
 8000cbc:	68db      	ldr	r3, [r3, #12]
 8000cbe:	897a      	ldrh	r2, [r7, #10]
 8000cc0:	0052      	lsls	r2, r2, #1
 8000cc2:	2103      	movs	r1, #3
 8000cc4:	fa01 f202 	lsl.w	r2, r1, r2
 8000cc8:	43d2      	mvns	r2, r2
 8000cca:	401a      	ands	r2, r3
 8000ccc:	68fb      	ldr	r3, [r7, #12]
 8000cce:	60da      	str	r2, [r3, #12]
	port->PUPDR = port->PUPDR | (pull << (pin*2));
 8000cd0:	68fb      	ldr	r3, [r7, #12]
 8000cd2:	68da      	ldr	r2, [r3, #12]
 8000cd4:	897b      	ldrh	r3, [r7, #10]
 8000cd6:	005b      	lsls	r3, r3, #1
 8000cd8:	6879      	ldr	r1, [r7, #4]
 8000cda:	fa01 f303 	lsl.w	r3, r1, r3
 8000cde:	431a      	orrs	r2, r3
 8000ce0:	68fb      	ldr	r3, [r7, #12]
 8000ce2:	60da      	str	r2, [r3, #12]

	return 0;
 8000ce4:	2300      	movs	r3, #0
}
 8000ce6:	4618      	mov	r0, r3
 8000ce8:	3714      	adds	r7, #20
 8000cea:	46bd      	mov	sp, r7
 8000cec:	f85d 7b04 	ldr.w	r7, [sp], #4
 8000cf0:	4770      	bx	lr

08000cf2 <gpio_configure_pin_alternate_function>:

int gpio_configure_pin_alternate_function(GPIO_TypeDef* port, uint16_t pin, uint32_t alt_function)
{
 8000cf2:	b480      	push	{r7}
 8000cf4:	b085      	sub	sp, #20
 8000cf6:	af00      	add	r7, sp, #0
 8000cf8:	60f8      	str	r0, [r7, #12]
 8000cfa:	460b      	mov	r3, r1
 8000cfc:	607a      	str	r2, [r7, #4]
 8000cfe:	817b      	strh	r3, [r7, #10]
	if(pin < 8)
 8000d00:	897b      	ldrh	r3, [r7, #10]
 8000d02:	2b07      	cmp	r3, #7
 8000d04:	d815      	bhi.n	8000d32 <gpio_configure_pin_alternate_function+0x40>
	{
		port->AFR[0] = port->AFR[0] & ~(0x0000000F << (pin*4));
 8000d06:	68fb      	ldr	r3, [r7, #12]
 8000d08:	6a1b      	ldr	r3, [r3, #32]
 8000d0a:	897a      	ldrh	r2, [r7, #10]
 8000d0c:	0092      	lsls	r2, r2, #2
 8000d0e:	210f      	movs	r1, #15
 8000d10:	fa01 f202 	lsl.w	r2, r1, r2
 8000d14:	43d2      	mvns	r2, r2
 8000d16:	401a      	ands	r2, r3
 8000d18:	68fb      	ldr	r3, [r7, #12]
 8000d1a:	621a      	str	r2, [r3, #32]
		port->AFR[0] = port->AFR[0] | (alt_function << (pin*4));
 8000d1c:	68fb      	ldr	r3, [r7, #12]
 8000d1e:	6a1a      	ldr	r2, [r3, #32]
 8000d20:	897b      	ldrh	r3, [r7, #10]
 8000d22:	009b      	lsls	r3, r3, #2
 8000d24:	6879      	ldr	r1, [r7, #4]
 8000d26:	fa01 f303 	lsl.w	r3, r1, r3
 8000d2a:	431a      	orrs	r2, r3
 8000d2c:	68fb      	ldr	r3, [r7, #12]
 8000d2e:	621a      	str	r2, [r3, #32]
 8000d30:	e016      	b.n	8000d60 <gpio_configure_pin_alternate_function+0x6e>
	}
	else
	{
		port->AFR[1] = port->AFR[1] & ~(0x0000000F << ((pin-8)*4));
 8000d32:	68fb      	ldr	r3, [r7, #12]
 8000d34:	6a5b      	ldr	r3, [r3, #36]	@ 0x24
 8000d36:	897a      	ldrh	r2, [r7, #10]
 8000d38:	3a08      	subs	r2, #8
 8000d3a:	0092      	lsls	r2, r2, #2
 8000d3c:	210f      	movs	r1, #15
 8000d3e:	fa01 f202 	lsl.w	r2, r1, r2
 8000d42:	43d2      	mvns	r2, r2
 8000d44:	401a      	ands	r2, r3
 8000d46:	68fb      	ldr	r3, [r7, #12]
 8000d48:	625a      	str	r2, [r3, #36]	@ 0x24
		port->AFR[1] = port->AFR[1] | (alt_function << ((pin-8)*4));
 8000d4a:	68fb      	ldr	r3, [r7, #12]
 8000d4c:	6a5a      	ldr	r2, [r3, #36]	@ 0x24
 8000d4e:	897b      	ldrh	r3, [r7, #10]
 8000d50:	3b08      	subs	r3, #8
 8000d52:	009b      	lsls	r3, r3, #2
 8000d54:	6879      	ldr	r1, [r7, #4]
 8000d56:	fa01 f303 	lsl.w	r3, r1, r3
 8000d5a:	431a      	orrs	r2, r3
 8000d5c:	68fb      	ldr	r3, [r7, #12]
 8000d5e:	625a      	str	r2, [r3, #36]	@ 0x24
	}

	return 0;
 8000d60:	2300      	movs	r3, #0
}
 8000d62:	4618      	mov	r0, r3
 8000d64:	3714      	adds	r7, #20
 8000d66:	46bd      	mov	sp, r7
 8000d68:	f85d 7b04 	ldr.w	r7, [sp], #4
 8000d6c:	4770      	bx	lr

08000d6e <gpio_read_from_pin>:

//***********************************GPIO READING AND WRITING FUNCTIONS*************************************

uint8_t gpio_read_from_pin(GPIO_TypeDef* port, uint16_t pin)
{
 8000d6e:	b480      	push	{r7}
 8000d70:	b083      	sub	sp, #12
 8000d72:	af00      	add	r7, sp, #0
 8000d74:	6078      	str	r0, [r7, #4]
 8000d76:	460b      	mov	r3, r1
 8000d78:	807b      	strh	r3, [r7, #2]
	return ((port->IDR >> pin) & 0x1);
 8000d7a:	687b      	ldr	r3, [r7, #4]
 8000d7c:	691a      	ldr	r2, [r3, #16]
 8000d7e:	887b      	ldrh	r3, [r7, #2]
 8000d80:	fa22 f303 	lsr.w	r3, r2, r3
 8000d84:	b2db      	uxtb	r3, r3
 8000d86:	f003 0301 	and.w	r3, r3, #1
 8000d8a:	b2db      	uxtb	r3, r3
}
 8000d8c:	4618      	mov	r0, r3
 8000d8e:	370c      	adds	r7, #12
 8000d90:	46bd      	mov	sp, r7
 8000d92:	f85d 7b04 	ldr.w	r7, [sp], #4
 8000d96:	4770      	bx	lr

08000d98 <gpio_write_to_pin>:

int gpio_write_to_pin(GPIO_TypeDef* port, uint16_t pin, uint8_t value)
{
 8000d98:	b480      	push	{r7}
 8000d9a:	b083      	sub	sp, #12
 8000d9c:	af00      	add	r7, sp, #0
 8000d9e:	6078      	str	r0, [r7, #4]
 8000da0:	460b      	mov	r3, r1
 8000da2:	807b      	strh	r3, [r7, #2]
 8000da4:	4613      	mov	r3, r2
 8000da6:	707b      	strb	r3, [r7, #1]
	port->ODR = port->ODR & ~(0x00000001 << pin);
 8000da8:	687b      	ldr	r3, [r7, #4]
 8000daa:	695b      	ldr	r3, [r3, #20]
 8000dac:	887a      	ldrh	r2, [r7, #2]
 8000dae:	2101      	movs	r1, #1
 8000db0:	fa01 f202 	lsl.w	r2, r1, r2
 8000db4:	43d2      	mvns	r2, r2
 8000db6:	401a      	ands	r2, r3
 8000db8:	687b      	ldr	r3, [r7, #4]
 8000dba:	615a      	str	r2, [r3, #20]
	port->ODR = port->ODR | (value << pin);
 8000dbc:	687b      	ldr	r3, [r7, #4]
 8000dbe:	695b      	ldr	r3, [r3, #20]
 8000dc0:	7879      	ldrb	r1, [r7, #1]
 8000dc2:	887a      	ldrh	r2, [r7, #2]
 8000dc4:	fa01 f202 	lsl.w	r2, r1, r2
 8000dc8:	431a      	orrs	r2, r3
 8000dca:	687b      	ldr	r3, [r7, #4]
 8000dcc:	615a      	str	r2, [r3, #20]

	return 0;
 8000dce:	2300      	movs	r3, #0
}
 8000dd0:	4618      	mov	r0, r3
 8000dd2:	370c      	adds	r7, #12
 8000dd4:	46bd      	mov	sp, r7
 8000dd6:	f85d 7b04 	ldr.w	r7, [sp], #4
 8000dda:	4770      	bx	lr

08000ddc <gpio_configure_interrupt>:
}

//*************************************GPIO INTERRUPT HANDLING FUNTIONS***************************************

int gpio_configure_interrupt(uint16_t pin, uint32_t edge)
{
 8000ddc:	b480      	push	{r7}
 8000dde:	b083      	sub	sp, #12
 8000de0:	af00      	add	r7, sp, #0
 8000de2:	4603      	mov	r3, r0
 8000de4:	6039      	str	r1, [r7, #0]
 8000de6:	80fb      	strh	r3, [r7, #6]
	if(edge == GPIO_RISING_EDGE)
 8000de8:	683b      	ldr	r3, [r7, #0]
 8000dea:	2b00      	cmp	r3, #0
 8000dec:	d116      	bne.n	8000e1c <gpio_configure_interrupt+0x40>
	{
		EXTI->RTSR = EXTI->RTSR & ~(0x00000001 << pin);
 8000dee:	4b34      	ldr	r3, [pc, #208]	@ (8000ec0 <gpio_configure_interrupt+0xe4>)
 8000df0:	689b      	ldr	r3, [r3, #8]
 8000df2:	88fa      	ldrh	r2, [r7, #6]
 8000df4:	2101      	movs	r1, #1
 8000df6:	fa01 f202 	lsl.w	r2, r1, r2
 8000dfa:	43d2      	mvns	r2, r2
 8000dfc:	4611      	mov	r1, r2
 8000dfe:	4a30      	ldr	r2, [pc, #192]	@ (8000ec0 <gpio_configure_interrupt+0xe4>)
 8000e00:	400b      	ands	r3, r1
 8000e02:	6093      	str	r3, [r2, #8]
		EXTI->RTSR = EXTI->RTSR | (1 << pin);
 8000e04:	4b2e      	ldr	r3, [pc, #184]	@ (8000ec0 <gpio_configure_interrupt+0xe4>)
 8000e06:	689b      	ldr	r3, [r3, #8]
 8000e08:	88fa      	ldrh	r2, [r7, #6]
 8000e0a:	2101      	movs	r1, #1
 8000e0c:	fa01 f202 	lsl.w	r2, r1, r2
 8000e10:	4611      	mov	r1, r2
 8000e12:	4a2b      	ldr	r2, [pc, #172]	@ (8000ec0 <gpio_configure_interrupt+0xe4>)
 8000e14:	430b      	orrs	r3, r1
 8000e16:	6093      	str	r3, [r2, #8]

		return 0;
 8000e18:	2300      	movs	r3, #0
 8000e1a:	e04a      	b.n	8000eb2 <gpio_configure_interrupt+0xd6>
	}
	else if(edge == GPIO_FALLING_EDGE)
 8000e1c:	683b      	ldr	r3, [r7, #0]
 8000e1e:	2b01      	cmp	r3, #1
 8000e20:	d116      	bne.n	8000e50 <gpio_configure_interrupt+0x74>
	{
		EXTI->FTSR = EXTI->FTSR & ~(0x00000001 << pin);
 8000e22:	4b27      	ldr	r3, [pc, #156]	@ (8000ec0 <gpio_configure_interrupt+0xe4>)
 8000e24:	68db      	ldr	r3, [r3, #12]
 8000e26:	88fa      	ldrh	r2, [r7, #6]
 8000e28:	2101      	movs	r1, #1
 8000e2a:	fa01 f202 	lsl.w	r2, r1, r2
 8000e2e:	43d2      	mvns	r2, r2
 8000e30:	4611      	mov	r1, r2
 8000e32:	4a23      	ldr	r2, [pc, #140]	@ (8000ec0 <gpio_configure_interrupt+0xe4>)
 8000e34:	400b      	ands	r3, r1
 8000e36:	60d3      	str	r3, [r2, #12]
		EXTI->FTSR = EXTI->FTSR | (1 << pin);
 8000e38:	4b21      	ldr	r3, [pc, #132]	@ (8000ec0 <gpio_configure_interrupt+0xe4>)
 8000e3a:	68db      	ldr	r3, [r3, #12]
 8000e3c:	88fa      	ldrh	r2, [r7, #6]
 8000e3e:	2101      	movs	r1, #1
 8000e40:	fa01 f202 	lsl.w	r2, r1, r2
 8000e44:	4611      	mov	r1, r2
 8000e46:	4a1e      	ldr	r2, [pc, #120]	@ (8000ec0 <gpio_configure_interrupt+0xe4>)
 8000e48:	430b      	orrs	r3, r1
 8000e4a:	60d3      	str	r3, [r2, #12]

		return 0;
 8000e4c:	2300      	movs	r3, #0
 8000e4e:	e030      	b.n	8000eb2 <gpio_configure_interrupt+0xd6>
	}
	else if(edge == GPIO_RISING_FALLING_EDGE)
 8000e50:	683b      	ldr	r3, [r7, #0]
 8000e52:	2b02      	cmp	r3, #2
 8000e54:	d12b      	bne.n	8000eae <gpio_configure_interrupt+0xd2>
	{
		EXTI->RTSR = EXTI->RTSR & ~(0x00000001 << pin);
 8000e56:	4b1a      	ldr	r3, [pc, #104]	@ (8000ec0 <gpio_configure_interrupt+0xe4>)
 8000e58:	689b      	ldr	r3, [r3, #8]
 8000e5a:	88fa      	ldrh	r2, [r7, #6]
 8000e5c:	2101      	movs	r1, #1
 8000e5e:	fa01 f202 	lsl.w	r2, r1, r2
 8000e62:	43d2      	mvns	r2, r2
 8000e64:	4611      	mov	r1, r2
 8000e66:	4a16      	ldr	r2, [pc, #88]	@ (8000ec0 <gpio_configure_interrupt+0xe4>)
 8000e68:	400b      	ands	r3, r1
 8000e6a:	6093      	str	r3, [r2, #8]
		EXTI->RTSR = EXTI->RTSR | (1 << pin);
 8000e6c:	4b14      	ldr	r3, [pc, #80]	@ (8000ec0 <gpio_configure_interrupt+0xe4>)
 8000e6e:	689b      	ldr	r3, [r3, #8]
 8000e70:	88fa      	ldrh	r2, [r7, #6]
 8000e72:	2101      	movs	r1, #1
 8000e74:	fa01 f202 	lsl.w	r2, r1, r2
 8000e78:	4611      	mov	r1, r2
 8000e7a:	4a11      	ldr	r2, [pc, #68]	@ (8000ec0 <gpio_configure_interrupt+0xe4>)
 8000e7c:	430b      	orrs	r3, r1
 8000e7e:	6093      	str	r3, [r2, #8]
		EXTI->FTSR = EXTI->FTSR & ~(0x00000001 << pin);
 8000e80:	4b0f      	ldr	r3, [pc, #60]	@ (8000ec0 <gpio_configure_interrupt+0xe4>)
 8000e82:	68db      	ldr	r3, [r3, #12]
 8000e84:	88fa      	ldrh	r2, [r7, #6]
 8000e86:	2101      	movs	r1, #1
 8000e88:	fa01 f202 	lsl.w	r2, r1, r2
 8000e8c:	43d2      	mvns	r2, r2
 8000e8e:	4611      	mov	r1, r2
 8000e90:	4a0b      	ldr	r2, [pc, #44]	@ (8000ec0 <gpio_configure_interrupt+0xe4>)
 8000e92:	400b      	ands	r3, r1
 8000e94:	60d3      	str	r3, [r2, #12]
		EXTI->FTSR = EXTI->FTSR | (1 << pin);
 8000e96:	4b0a      	ldr	r3, [pc, #40]	@ (8000ec0 <gpio_configure_interrupt+0xe4>)
 8000e98:	68db      	ldr	r3, [r3, #12]
 8000e9a:	88fa      	ldrh	r2, [r7, #6]
 8000e9c:	2101      	movs	r1, #1
 8000e9e:	fa01 f202 	lsl.w	r2, r1, r2
 8000ea2:	4611      	mov	r1, r2
 8000ea4:	4a06      	ldr	r2, [pc, #24]	@ (8000ec0 <gpio_configure_interrupt+0xe4>)
 8000ea6:	430b      	orrs	r3, r1
 8000ea8:	60d3      	str	r3, [r2, #12]

		return 0;
 8000eaa:	2300      	movs	r3, #0
 8000eac:	e001      	b.n	8000eb2 <gpio_configure_interrupt+0xd6>
	}
	else
	{
		return -1;
 8000eae:	f04f 33ff 	mov.w	r3, #4294967295
	}
}
 8000eb2:	4618      	mov	r0, r3
 8000eb4:	370c      	adds	r7, #12
 8000eb6:	46bd      	mov	sp, r7
 8000eb8:	f85d 7b04 	ldr.w	r7, [sp], #4
 8000ebc:	4770      	bx	lr
 8000ebe:	bf00      	nop
 8000ec0:	40013c00 	.word	0x40013c00

08000ec4 <gpio_enable_interrupt>:

int gpio_enable_interrupt(uint16_t pin, IRQn_Type irq)
{
 8000ec4:	b580      	push	{r7, lr}
 8000ec6:	b082      	sub	sp, #8
 8000ec8:	af00      	add	r7, sp, #0
 8000eca:	4603      	mov	r3, r0
 8000ecc:	460a      	mov	r2, r1
 8000ece:	80fb      	strh	r3, [r7, #6]
 8000ed0:	4613      	mov	r3, r2
 8000ed2:	717b      	strb	r3, [r7, #5]
	EXTI->IMR = EXTI->IMR & ~(0x00000001 << pin);
 8000ed4:	4b0f      	ldr	r3, [pc, #60]	@ (8000f14 <gpio_enable_interrupt+0x50>)
 8000ed6:	681b      	ldr	r3, [r3, #0]
 8000ed8:	88fa      	ldrh	r2, [r7, #6]
 8000eda:	2101      	movs	r1, #1
 8000edc:	fa01 f202 	lsl.w	r2, r1, r2
 8000ee0:	43d2      	mvns	r2, r2
 8000ee2:	4611      	mov	r1, r2
 8000ee4:	4a0b      	ldr	r2, [pc, #44]	@ (8000f14 <gpio_enable_interrupt+0x50>)
 8000ee6:	400b      	ands	r3, r1
 8000ee8:	6013      	str	r3, [r2, #0]
	EXTI->IMR = EXTI->IMR | (1 << pin);
 8000eea:	4b0a      	ldr	r3, [pc, #40]	@ (8000f14 <gpio_enable_interrupt+0x50>)
 8000eec:	681b      	ldr	r3, [r3, #0]
 8000eee:	88fa      	ldrh	r2, [r7, #6]
 8000ef0:	2101      	movs	r1, #1
 8000ef2:	fa01 f202 	lsl.w	r2, r1, r2
 8000ef6:	4611      	mov	r1, r2
 8000ef8:	4a06      	ldr	r2, [pc, #24]	@ (8000f14 <gpio_enable_interrupt+0x50>)
 8000efa:	430b      	orrs	r3, r1
 8000efc:	6013      	str	r3, [r2, #0]
	NVIC_EnableIRQ(irq);
 8000efe:	f997 3005 	ldrsb.w	r3, [r7, #5]
 8000f02:	4618      	mov	r0, r3
 8000f04:	f7ff fdf8 	bl	8000af8 <__NVIC_EnableIRQ>

	return 0;
 8000f08:	2300      	movs	r3, #0
}
 8000f0a:	4618      	mov	r0, r3
 8000f0c:	3708      	adds	r7, #8
 8000f0e:	46bd      	mov	sp, r7
 8000f10:	bd80      	pop	{r7, pc}
 8000f12:	bf00      	nop
 8000f14:	40013c00 	.word	0x40013c00

08000f18 <__NVIC_EnableIRQ>:
{
 8000f18:	b480      	push	{r7}
 8000f1a:	b083      	sub	sp, #12
 8000f1c:	af00      	add	r7, sp, #0
 8000f1e:	4603      	mov	r3, r0
 8000f20:	71fb      	strb	r3, [r7, #7]
  if ((int32_t)(IRQn) >= 0)
 8000f22:	f997 3007 	ldrsb.w	r3, [r7, #7]
 8000f26:	2b00      	cmp	r3, #0
 8000f28:	db0b      	blt.n	8000f42 <__NVIC_EnableIRQ+0x2a>
    NVIC->ISER[(((uint32_t)IRQn) >> 5UL)] = (uint32_t)(1UL << (((uint32_t)IRQn) & 0x1FUL));
 8000f2a:	79fb      	ldrb	r3, [r7, #7]
 8000f2c:	f003 021f 	and.w	r2, r3, #31
 8000f30:	4907      	ldr	r1, [pc, #28]	@ (8000f50 <__NVIC_EnableIRQ+0x38>)
 8000f32:	f997 3007 	ldrsb.w	r3, [r7, #7]
 8000f36:	095b      	lsrs	r3, r3, #5
 8000f38:	2001      	movs	r0, #1
 8000f3a:	fa00 f202 	lsl.w	r2, r0, r2
 8000f3e:	f841 2023 	str.w	r2, [r1, r3, lsl #2]
}
 8000f42:	bf00      	nop
 8000f44:	370c      	adds	r7, #12
 8000f46:	46bd      	mov	sp, r7
 8000f48:	f85d 7b04 	ldr.w	r7, [sp], #4
 8000f4c:	4770      	bx	lr
 8000f4e:	bf00      	nop
 8000f50:	e000e100 	.word	0xe000e100

08000f54 <usart_choose_type>:
#include <STM32F401VE_USART_driver.h>

//*********************************SPI CONFIGURATION FUCTIONS********************************************************

void usart_choose_type(uint32_t usart)
{
 8000f54:	b480      	push	{r7}
 8000f56:	b083      	sub	sp, #12
 8000f58:	af00      	add	r7, sp, #0
 8000f5a:	6078      	str	r0, [r7, #4]
	switch(usart)
 8000f5c:	687b      	ldr	r3, [r7, #4]
 8000f5e:	2b02      	cmp	r3, #2
 8000f60:	d017      	beq.n	8000f92 <usart_choose_type+0x3e>
 8000f62:	687b      	ldr	r3, [r7, #4]
 8000f64:	2b02      	cmp	r3, #2
 8000f66:	d81b      	bhi.n	8000fa0 <usart_choose_type+0x4c>
 8000f68:	687b      	ldr	r3, [r7, #4]
 8000f6a:	2b00      	cmp	r3, #0
 8000f6c:	d003      	beq.n	8000f76 <usart_choose_type+0x22>
 8000f6e:	687b      	ldr	r3, [r7, #4]
 8000f70:	2b01      	cmp	r3, #1
 8000f72:	d007      	beq.n	8000f84 <usart_choose_type+0x30>
	case USART6_TYPE:
	{
		RCC->APB2ENR = RCC->APB2ENR | USART6EN;
	}break;
	}
}
 8000f74:	e014      	b.n	8000fa0 <usart_choose_type+0x4c>
		RCC->APB2ENR = RCC->APB2ENR | USART1EN;
 8000f76:	4b0d      	ldr	r3, [pc, #52]	@ (8000fac <usart_choose_type+0x58>)
 8000f78:	6c5b      	ldr	r3, [r3, #68]	@ 0x44
 8000f7a:	4a0c      	ldr	r2, [pc, #48]	@ (8000fac <usart_choose_type+0x58>)
 8000f7c:	f043 0310 	orr.w	r3, r3, #16
 8000f80:	6453      	str	r3, [r2, #68]	@ 0x44
	}break;
 8000f82:	e00d      	b.n	8000fa0 <usart_choose_type+0x4c>
		RCC->APB1ENR = RCC->APB1ENR | USART2EN;
 8000f84:	4b09      	ldr	r3, [pc, #36]	@ (8000fac <usart_choose_type+0x58>)
 8000f86:	6c1b      	ldr	r3, [r3, #64]	@ 0x40
 8000f88:	4a08      	ldr	r2, [pc, #32]	@ (8000fac <usart_choose_type+0x58>)
 8000f8a:	f443 3300 	orr.w	r3, r3, #131072	@ 0x20000
 8000f8e:	6413      	str	r3, [r2, #64]	@ 0x40
	}break;
 8000f90:	e006      	b.n	8000fa0 <usart_choose_type+0x4c>
		RCC->APB2ENR = RCC->APB2ENR | USART6EN;
 8000f92:	4b06      	ldr	r3, [pc, #24]	@ (8000fac <usart_choose_type+0x58>)
 8000f94:	6c5b      	ldr	r3, [r3, #68]	@ 0x44
 8000f96:	4a05      	ldr	r2, [pc, #20]	@ (8000fac <usart_choose_type+0x58>)
 8000f98:	f043 0320 	orr.w	r3, r3, #32
 8000f9c:	6453      	str	r3, [r2, #68]	@ 0x44
	}break;
 8000f9e:	bf00      	nop
}
 8000fa0:	bf00      	nop
 8000fa2:	370c      	adds	r7, #12
 8000fa4:	46bd      	mov	sp, r7
 8000fa6:	f85d 7b04 	ldr.w	r7, [sp], #4
 8000faa:	4770      	bx	lr
 8000fac:	40023800 	.word	0x40023800

08000fb0 <usart_configure_cr1>:

void usart_configure_cr1(USART_TypeDef* type, uint16_t over8, uint16_t ue, uint16_t m, uint16_t wake, uint16_t pce, uint16_t ps, uint16_t peie, uint16_t txeie, uint16_t tcie, uint16_t rxneie, uint16_t idleie, uint16_t te, uint16_t re, uint16_t rwu, uint16_t sbk)
{
 8000fb0:	b580      	push	{r7, lr}
 8000fb2:	b084      	sub	sp, #16
 8000fb4:	af00      	add	r7, sp, #0
 8000fb6:	60f8      	str	r0, [r7, #12]
 8000fb8:	4608      	mov	r0, r1
 8000fba:	4611      	mov	r1, r2
 8000fbc:	461a      	mov	r2, r3
 8000fbe:	4603      	mov	r3, r0
 8000fc0:	817b      	strh	r3, [r7, #10]
 8000fc2:	460b      	mov	r3, r1
 8000fc4:	813b      	strh	r3, [r7, #8]
 8000fc6:	4613      	mov	r3, r2
 8000fc8:	80fb      	strh	r3, [r7, #6]
	usart_cr1_configure_over8(type, over8);
 8000fca:	897b      	ldrh	r3, [r7, #10]
 8000fcc:	4619      	mov	r1, r3
 8000fce:	68f8      	ldr	r0, [r7, #12]
 8000fd0:	f000 f9d0 	bl	8001374 <usart_cr1_configure_over8>
	usart_cr1_configure_ue(type, ue);
 8000fd4:	893b      	ldrh	r3, [r7, #8]
 8000fd6:	4619      	mov	r1, r3
 8000fd8:	68f8      	ldr	r0, [r7, #12]
 8000fda:	f000 f9e4 	bl	80013a6 <usart_cr1_configure_ue>
	usart_cr1_configure_m(type, m);
 8000fde:	88fb      	ldrh	r3, [r7, #6]
 8000fe0:	4619      	mov	r1, r3
 8000fe2:	68f8      	ldr	r0, [r7, #12]
 8000fe4:	f000 f9f8 	bl	80013d8 <usart_cr1_configure_m>
	usart_cr1_configure_wake(type, wake);
 8000fe8:	8b3b      	ldrh	r3, [r7, #24]
 8000fea:	4619      	mov	r1, r3
 8000fec:	68f8      	ldr	r0, [r7, #12]
 8000fee:	f000 fa0c 	bl	800140a <usart_cr1_configure_wake>
	usart_cr1_configure_pce(type, pce);
 8000ff2:	8bbb      	ldrh	r3, [r7, #28]
 8000ff4:	4619      	mov	r1, r3
 8000ff6:	68f8      	ldr	r0, [r7, #12]
 8000ff8:	f000 fa20 	bl	800143c <usart_cr1_configure_pce>
	usart_cr1_configure_ps(type, ps);
 8000ffc:	8c3b      	ldrh	r3, [r7, #32]
 8000ffe:	4619      	mov	r1, r3
 8001000:	68f8      	ldr	r0, [r7, #12]
 8001002:	f000 fa34 	bl	800146e <usart_cr1_configure_ps>
	usart_cr1_configure_peie(type, peie);
 8001006:	8cbb      	ldrh	r3, [r7, #36]	@ 0x24
 8001008:	4619      	mov	r1, r3
 800100a:	68f8      	ldr	r0, [r7, #12]
 800100c:	f000 fa48 	bl	80014a0 <usart_cr1_configure_peie>
	usart_cr1_configure_txeie(type, txeie);
 8001010:	8d3b      	ldrh	r3, [r7, #40]	@ 0x28
 8001012:	4619      	mov	r1, r3
 8001014:	68f8      	ldr	r0, [r7, #12]
 8001016:	f000 fa5c 	bl	80014d2 <usart_cr1_configure_txeie>
	usart_cr1_configure_tcie(type, tcie);
 800101a:	8dbb      	ldrh	r3, [r7, #44]	@ 0x2c
 800101c:	4619      	mov	r1, r3
 800101e:	68f8      	ldr	r0, [r7, #12]
 8001020:	f000 fa70 	bl	8001504 <usart_cr1_configure_tcie>
	usart_cr1_configure_rxneie(type, rxneie);
 8001024:	8e3b      	ldrh	r3, [r7, #48]	@ 0x30
 8001026:	4619      	mov	r1, r3
 8001028:	68f8      	ldr	r0, [r7, #12]
 800102a:	f000 fa84 	bl	8001536 <usart_cr1_configure_rxneie>
	usart_cr1_configure_idleie(type, idleie);
 800102e:	8ebb      	ldrh	r3, [r7, #52]	@ 0x34
 8001030:	4619      	mov	r1, r3
 8001032:	68f8      	ldr	r0, [r7, #12]
 8001034:	f000 fa98 	bl	8001568 <usart_cr1_configure_idleie>
	usart_cr1_configure_te(type, te);
 8001038:	8f3b      	ldrh	r3, [r7, #56]	@ 0x38
 800103a:	4619      	mov	r1, r3
 800103c:	68f8      	ldr	r0, [r7, #12]
 800103e:	f000 faac 	bl	800159a <usart_cr1_configure_te>
	usart_cr1_configure_re(type, re);
 8001042:	8fbb      	ldrh	r3, [r7, #60]	@ 0x3c
 8001044:	4619      	mov	r1, r3
 8001046:	68f8      	ldr	r0, [r7, #12]
 8001048:	f000 fac0 	bl	80015cc <usart_cr1_configure_re>
	usart_cr1_configure_rwu(type, rwu);
 800104c:	f8b7 3040 	ldrh.w	r3, [r7, #64]	@ 0x40
 8001050:	4619      	mov	r1, r3
 8001052:	68f8      	ldr	r0, [r7, #12]
 8001054:	f000 fad3 	bl	80015fe <usart_cr1_configure_rwu>
	usart_cr1_configure_sbk(type, sbk);
 8001058:	f8b7 3044 	ldrh.w	r3, [r7, #68]	@ 0x44
 800105c:	4619      	mov	r1, r3
 800105e:	68f8      	ldr	r0, [r7, #12]
 8001060:	f000 fae6 	bl	8001630 <usart_cr1_configure_sbk>
}
 8001064:	bf00      	nop
 8001066:	3710      	adds	r7, #16
 8001068:	46bd      	mov	sp, r7
 800106a:	bd80      	pop	{r7, pc}

0800106c <usart_configure_cr2>:

void usart_configure_cr2(USART_TypeDef* type, uint16_t linen, uint16_t stop, uint16_t clken, uint16_t cpol, uint16_t cpha, uint16_t lbcl, uint16_t lbdie, uint16_t lbdl, uint16_t add)
{
 800106c:	b580      	push	{r7, lr}
 800106e:	b084      	sub	sp, #16
 8001070:	af00      	add	r7, sp, #0
 8001072:	60f8      	str	r0, [r7, #12]
 8001074:	4608      	mov	r0, r1
 8001076:	4611      	mov	r1, r2
 8001078:	461a      	mov	r2, r3
 800107a:	4603      	mov	r3, r0
 800107c:	817b      	strh	r3, [r7, #10]
 800107e:	460b      	mov	r3, r1
 8001080:	813b      	strh	r3, [r7, #8]
 8001082:	4613      	mov	r3, r2
 8001084:	80fb      	strh	r3, [r7, #6]
	usart_cr2_configure_linen(type, linen);
 8001086:	897b      	ldrh	r3, [r7, #10]
 8001088:	4619      	mov	r1, r3
 800108a:	68f8      	ldr	r0, [r7, #12]
 800108c:	f000 fae8 	bl	8001660 <usart_cr2_configure_linen>
	usart_cr2_configure_stop(type, stop);
 8001090:	893b      	ldrh	r3, [r7, #8]
 8001092:	4619      	mov	r1, r3
 8001094:	68f8      	ldr	r0, [r7, #12]
 8001096:	f000 fafc 	bl	8001692 <usart_cr2_configure_stop>
	usart_cr2_configure_clken(type, clken);
 800109a:	88fb      	ldrh	r3, [r7, #6]
 800109c:	4619      	mov	r1, r3
 800109e:	68f8      	ldr	r0, [r7, #12]
 80010a0:	f000 fb10 	bl	80016c4 <usart_cr2_configure_clken>
	usart_cr2_configure_cpol(type, cpol);
 80010a4:	8b3b      	ldrh	r3, [r7, #24]
 80010a6:	4619      	mov	r1, r3
 80010a8:	68f8      	ldr	r0, [r7, #12]
 80010aa:	f000 fb24 	bl	80016f6 <usart_cr2_configure_cpol>
	usart_cr2_configure_cpha(type, cpha);
 80010ae:	8bbb      	ldrh	r3, [r7, #28]
 80010b0:	4619      	mov	r1, r3
 80010b2:	68f8      	ldr	r0, [r7, #12]
 80010b4:	f000 fb38 	bl	8001728 <usart_cr2_configure_cpha>
	usart_cr2_configure_lbcl(type, lbcl);
 80010b8:	8c3b      	ldrh	r3, [r7, #32]
 80010ba:	4619      	mov	r1, r3
 80010bc:	68f8      	ldr	r0, [r7, #12]
 80010be:	f000 fb4c 	bl	800175a <usart_cr2_configure_lbcl>
	usart_cr2_configure_lbdie(type, lbdie);
 80010c2:	8cbb      	ldrh	r3, [r7, #36]	@ 0x24
 80010c4:	4619      	mov	r1, r3
 80010c6:	68f8      	ldr	r0, [r7, #12]
 80010c8:	f000 fb60 	bl	800178c <usart_cr2_configure_lbdie>
	usart_cr2_configure_lbdl(type, lbdl);
 80010cc:	8d3b      	ldrh	r3, [r7, #40]	@ 0x28
 80010ce:	4619      	mov	r1, r3
 80010d0:	68f8      	ldr	r0, [r7, #12]
 80010d2:	f000 fb74 	bl	80017be <usart_cr2_configure_lbdl>
	usart_cr2_configure_add(type, add);
 80010d6:	8dbb      	ldrh	r3, [r7, #44]	@ 0x2c
 80010d8:	4619      	mov	r1, r3
 80010da:	68f8      	ldr	r0, [r7, #12]
 80010dc:	f000 fb88 	bl	80017f0 <usart_cr2_configure_add>
}
 80010e0:	bf00      	nop
 80010e2:	3710      	adds	r7, #16
 80010e4:	46bd      	mov	sp, r7
 80010e6:	bd80      	pop	{r7, pc}

080010e8 <usart_configure_cr3>:

void usart_configure_cr3(USART_TypeDef* type, uint16_t onebit, uint16_t ctsie, uint16_t ctse, uint16_t rtse, uint16_t dmat, uint16_t dmar, uint16_t scen, uint16_t nack, uint16_t hdsel, uint16_t irlp, uint16_t iren, uint16_t eie)
{
 80010e8:	b580      	push	{r7, lr}
 80010ea:	b084      	sub	sp, #16
 80010ec:	af00      	add	r7, sp, #0
 80010ee:	60f8      	str	r0, [r7, #12]
 80010f0:	4608      	mov	r0, r1
 80010f2:	4611      	mov	r1, r2
 80010f4:	461a      	mov	r2, r3
 80010f6:	4603      	mov	r3, r0
 80010f8:	817b      	strh	r3, [r7, #10]
 80010fa:	460b      	mov	r3, r1
 80010fc:	813b      	strh	r3, [r7, #8]
 80010fe:	4613      	mov	r3, r2
 8001100:	80fb      	strh	r3, [r7, #6]
	usart_cr3_configure_onebit(type, onebit);
 8001102:	897b      	ldrh	r3, [r7, #10]
 8001104:	4619      	mov	r1, r3
 8001106:	68f8      	ldr	r0, [r7, #12]
 8001108:	f000 fb8a 	bl	8001820 <usart_cr3_configure_onebit>
	usart_cr3_configure_ctsie(type, ctsie);
 800110c:	893b      	ldrh	r3, [r7, #8]
 800110e:	4619      	mov	r1, r3
 8001110:	68f8      	ldr	r0, [r7, #12]
 8001112:	f000 fb9e 	bl	8001852 <usart_cr3_configure_ctsie>
	usart_cr3_configure_ctse(type, ctse);
 8001116:	88fb      	ldrh	r3, [r7, #6]
 8001118:	4619      	mov	r1, r3
 800111a:	68f8      	ldr	r0, [r7, #12]
 800111c:	f000 fbb2 	bl	8001884 <usart_cr3_configure_ctse>
	usart_cr3_configure_rtse(type, rtse);
 8001120:	8b3b      	ldrh	r3, [r7, #24]
 8001122:	4619      	mov	r1, r3
 8001124:	68f8      	ldr	r0, [r7, #12]
 8001126:	f000 fbc6 	bl	80018b6 <usart_cr3_configure_rtse>
	usart_cr3_configure_dmat(type, dmat);
 800112a:	8bbb      	ldrh	r3, [r7, #28]
 800112c:	4619      	mov	r1, r3
 800112e:	68f8      	ldr	r0, [r7, #12]
 8001130:	f000 fbda 	bl	80018e8 <usart_cr3_configure_dmat>
	usart_cr3_configure_dmar(type, dmar);
 8001134:	8c3b      	ldrh	r3, [r7, #32]
 8001136:	4619      	mov	r1, r3
 8001138:	68f8      	ldr	r0, [r7, #12]
 800113a:	f000 fbee 	bl	800191a <usart_cr3_configure_dmar>
	usart_cr3_configure_scen(type, scen);
 800113e:	8cbb      	ldrh	r3, [r7, #36]	@ 0x24
 8001140:	4619      	mov	r1, r3
 8001142:	68f8      	ldr	r0, [r7, #12]
 8001144:	f000 fc02 	bl	800194c <usart_cr3_configure_scen>
	usart_cr3_configure_nack(type, nack);
 8001148:	8d3b      	ldrh	r3, [r7, #40]	@ 0x28
 800114a:	4619      	mov	r1, r3
 800114c:	68f8      	ldr	r0, [r7, #12]
 800114e:	f000 fc16 	bl	800197e <usart_cr3_configure_nack>
	usart_cr3_configure_hdsel(type, hdsel);
 8001152:	8dbb      	ldrh	r3, [r7, #44]	@ 0x2c
 8001154:	4619      	mov	r1, r3
 8001156:	68f8      	ldr	r0, [r7, #12]
 8001158:	f000 fc2a 	bl	80019b0 <usart_cr3_configure_hdsel>
	usart_cr3_configure_irlp(type, irlp);
 800115c:	8e3b      	ldrh	r3, [r7, #48]	@ 0x30
 800115e:	4619      	mov	r1, r3
 8001160:	68f8      	ldr	r0, [r7, #12]
 8001162:	f000 fc3e 	bl	80019e2 <usart_cr3_configure_irlp>
	usart_cr3_configure_iren(type, iren);
 8001166:	8ebb      	ldrh	r3, [r7, #52]	@ 0x34
 8001168:	4619      	mov	r1, r3
 800116a:	68f8      	ldr	r0, [r7, #12]
 800116c:	f000 fc52 	bl	8001a14 <usart_cr3_configure_iren>
	usart_cr3_configure_eie(type, eie);
 8001170:	8f3b      	ldrh	r3, [r7, #56]	@ 0x38
 8001172:	4619      	mov	r1, r3
 8001174:	68f8      	ldr	r0, [r7, #12]
 8001176:	f000 fc66 	bl	8001a46 <usart_cr3_configure_eie>
}
 800117a:	bf00      	nop
 800117c:	3710      	adds	r7, #16
 800117e:	46bd      	mov	sp, r7
 8001180:	bd80      	pop	{r7, pc}

08001182 <usart_configure_brr>:

void usart_configure_brr(USART_TypeDef* type, uint16_t div_mantissa, uint16_t div_fraction)
{
 8001182:	b580      	push	{r7, lr}
 8001184:	b082      	sub	sp, #8
 8001186:	af00      	add	r7, sp, #0
 8001188:	6078      	str	r0, [r7, #4]
 800118a:	460b      	mov	r3, r1
 800118c:	807b      	strh	r3, [r7, #2]
 800118e:	4613      	mov	r3, r2
 8001190:	803b      	strh	r3, [r7, #0]
	usart_brr_configure_div_mantissa(type, div_mantissa);
 8001192:	887b      	ldrh	r3, [r7, #2]
 8001194:	4619      	mov	r1, r3
 8001196:	6878      	ldr	r0, [r7, #4]
 8001198:	f000 fc6d 	bl	8001a76 <usart_brr_configure_div_mantissa>
	usart_brr_configure_div_fraction(type, div_fraction);
 800119c:	883b      	ldrh	r3, [r7, #0]
 800119e:	4619      	mov	r1, r3
 80011a0:	6878      	ldr	r0, [r7, #4]
 80011a2:	f000 fc83 	bl	8001aac <usart_brr_configure_div_fraction>
}
 80011a6:	bf00      	nop
 80011a8:	3708      	adds	r7, #8
 80011aa:	46bd      	mov	sp, r7
 80011ac:	bd80      	pop	{r7, pc}

080011ae <usart_configure_gtpr>:

void usart_configure_gtpr(USART_TypeDef* type, uint16_t gt, uint16_t psc)
{
 80011ae:	b580      	push	{r7, lr}
 80011b0:	b082      	sub	sp, #8
 80011b2:	af00      	add	r7, sp, #0
 80011b4:	6078      	str	r0, [r7, #4]
 80011b6:	460b      	mov	r3, r1
 80011b8:	807b      	strh	r3, [r7, #2]
 80011ba:	4613      	mov	r3, r2
 80011bc:	803b      	strh	r3, [r7, #0]
	usart_gtpr_configure_gt(type, gt);
 80011be:	887b      	ldrh	r3, [r7, #2]
 80011c0:	4619      	mov	r1, r3
 80011c2:	6878      	ldr	r0, [r7, #4]
 80011c4:	f000 fc8a 	bl	8001adc <usart_gtpr_configure_gt>
	usart_gtpr_configure_psc(type, psc);
 80011c8:	883b      	ldrh	r3, [r7, #0]
 80011ca:	4619      	mov	r1, r3
 80011cc:	6878      	ldr	r0, [r7, #4]
 80011ce:	f000 fc9e 	bl	8001b0e <usart_gtpr_configure_psc>
}
 80011d2:	bf00      	nop
 80011d4:	3708      	adds	r7, #8
 80011d6:	46bd      	mov	sp, r7
 80011d8:	bd80      	pop	{r7, pc}

080011da <usart_configure>:

void usart_configure(usart_type* usart)
{
 80011da:	e92d 41f0 	stmdb	sp!, {r4, r5, r6, r7, r8, lr}
 80011de:	b094      	sub	sp, #80	@ 0x50
 80011e0:	af0c      	add	r7, sp, #48	@ 0x30
 80011e2:	61f8      	str	r0, [r7, #28]
	usart_choose_type(usart->type);
 80011e4:	69fb      	ldr	r3, [r7, #28]
 80011e6:	685b      	ldr	r3, [r3, #4]
 80011e8:	4618      	mov	r0, r3
 80011ea:	f7ff feb3 	bl	8000f54 <usart_choose_type>
	usart_cr1_configure_ue(usart->usart, 0x0);
 80011ee:	69fb      	ldr	r3, [r7, #28]
 80011f0:	681b      	ldr	r3, [r3, #0]
 80011f2:	2100      	movs	r1, #0
 80011f4:	4618      	mov	r0, r3
 80011f6:	f000 f8d6 	bl	80013a6 <usart_cr1_configure_ue>
	usart_configure_brr(usart->usart, usart->div_mantissa, usart->div_fraction);
 80011fa:	69fb      	ldr	r3, [r7, #28]
 80011fc:	6818      	ldr	r0, [r3, #0]
 80011fe:	69fb      	ldr	r3, [r7, #28]
 8001200:	f8b3 1050 	ldrh.w	r1, [r3, #80]	@ 0x50
 8001204:	69fb      	ldr	r3, [r7, #28]
 8001206:	f8b3 3052 	ldrh.w	r3, [r3, #82]	@ 0x52
 800120a:	461a      	mov	r2, r3
 800120c:	f7ff ffb9 	bl	8001182 <usart_configure_brr>
	usart_configure_cr1(usart->usart, usart->over8, usart->ue, usart->m, usart->wake, usart->pce, usart->ps, usart->peie, usart->txeie, usart->tcie, usart->rxneie, usart->idleie, usart->te, usart->re, usart->rwu, usart->sbk);
 8001210:	69fb      	ldr	r3, [r7, #28]
 8001212:	681b      	ldr	r3, [r3, #0]
 8001214:	61bb      	str	r3, [r7, #24]
 8001216:	69fb      	ldr	r3, [r7, #28]
 8001218:	f8b3 c008 	ldrh.w	ip, [r3, #8]
 800121c:	69fb      	ldr	r3, [r7, #28]
 800121e:	f8b3 e00a 	ldrh.w	lr, [r3, #10]
 8001222:	69fb      	ldr	r3, [r7, #28]
 8001224:	f8b3 800c 	ldrh.w	r8, [r3, #12]
 8001228:	69fb      	ldr	r3, [r7, #28]
 800122a:	89d8      	ldrh	r0, [r3, #14]
 800122c:	69fb      	ldr	r3, [r7, #28]
 800122e:	8a1c      	ldrh	r4, [r3, #16]
 8001230:	69fb      	ldr	r3, [r7, #28]
 8001232:	8a5d      	ldrh	r5, [r3, #18]
 8001234:	69fb      	ldr	r3, [r7, #28]
 8001236:	8a9e      	ldrh	r6, [r3, #20]
 8001238:	69fb      	ldr	r3, [r7, #28]
 800123a:	8ada      	ldrh	r2, [r3, #22]
 800123c:	617a      	str	r2, [r7, #20]
 800123e:	69fb      	ldr	r3, [r7, #28]
 8001240:	8b19      	ldrh	r1, [r3, #24]
 8001242:	6139      	str	r1, [r7, #16]
 8001244:	69fb      	ldr	r3, [r7, #28]
 8001246:	8b5b      	ldrh	r3, [r3, #26]
 8001248:	60fb      	str	r3, [r7, #12]
 800124a:	69fb      	ldr	r3, [r7, #28]
 800124c:	8b9a      	ldrh	r2, [r3, #28]
 800124e:	60ba      	str	r2, [r7, #8]
 8001250:	69fb      	ldr	r3, [r7, #28]
 8001252:	8bd9      	ldrh	r1, [r3, #30]
 8001254:	6079      	str	r1, [r7, #4]
 8001256:	69fb      	ldr	r3, [r7, #28]
 8001258:	8c19      	ldrh	r1, [r3, #32]
 800125a:	69fb      	ldr	r3, [r7, #28]
 800125c:	8c5a      	ldrh	r2, [r3, #34]	@ 0x22
 800125e:	69fb      	ldr	r3, [r7, #28]
 8001260:	8c9b      	ldrh	r3, [r3, #36]	@ 0x24
 8001262:	930b      	str	r3, [sp, #44]	@ 0x2c
 8001264:	920a      	str	r2, [sp, #40]	@ 0x28
 8001266:	9109      	str	r1, [sp, #36]	@ 0x24
 8001268:	6879      	ldr	r1, [r7, #4]
 800126a:	9108      	str	r1, [sp, #32]
 800126c:	68ba      	ldr	r2, [r7, #8]
 800126e:	9207      	str	r2, [sp, #28]
 8001270:	68fb      	ldr	r3, [r7, #12]
 8001272:	9306      	str	r3, [sp, #24]
 8001274:	6939      	ldr	r1, [r7, #16]
 8001276:	9105      	str	r1, [sp, #20]
 8001278:	697a      	ldr	r2, [r7, #20]
 800127a:	9204      	str	r2, [sp, #16]
 800127c:	9603      	str	r6, [sp, #12]
 800127e:	9502      	str	r5, [sp, #8]
 8001280:	9401      	str	r4, [sp, #4]
 8001282:	9000      	str	r0, [sp, #0]
 8001284:	4643      	mov	r3, r8
 8001286:	4672      	mov	r2, lr
 8001288:	4661      	mov	r1, ip
 800128a:	69b8      	ldr	r0, [r7, #24]
 800128c:	f7ff fe90 	bl	8000fb0 <usart_configure_cr1>
	usart_configure_cr2(usart->usart, usart->linen, usart->stop, usart->clken, usart->cpol, usart->cpha, usart->lbcl, usart->lbdie, usart->lbdl, usart->add);
 8001290:	69fb      	ldr	r3, [r7, #28]
 8001292:	681e      	ldr	r6, [r3, #0]
 8001294:	69fb      	ldr	r3, [r7, #28]
 8001296:	f8b3 c026 	ldrh.w	ip, [r3, #38]	@ 0x26
 800129a:	69fb      	ldr	r3, [r7, #28]
 800129c:	f8b3 e028 	ldrh.w	lr, [r3, #40]	@ 0x28
 80012a0:	69fb      	ldr	r3, [r7, #28]
 80012a2:	f8b3 802a 	ldrh.w	r8, [r3, #42]	@ 0x2a
 80012a6:	69fb      	ldr	r3, [r7, #28]
 80012a8:	8d9b      	ldrh	r3, [r3, #44]	@ 0x2c
 80012aa:	69fa      	ldr	r2, [r7, #28]
 80012ac:	8dd2      	ldrh	r2, [r2, #46]	@ 0x2e
 80012ae:	69f9      	ldr	r1, [r7, #28]
 80012b0:	8e09      	ldrh	r1, [r1, #48]	@ 0x30
 80012b2:	69f8      	ldr	r0, [r7, #28]
 80012b4:	8e40      	ldrh	r0, [r0, #50]	@ 0x32
 80012b6:	69fc      	ldr	r4, [r7, #28]
 80012b8:	8ea4      	ldrh	r4, [r4, #52]	@ 0x34
 80012ba:	69fd      	ldr	r5, [r7, #28]
 80012bc:	8eed      	ldrh	r5, [r5, #54]	@ 0x36
 80012be:	9505      	str	r5, [sp, #20]
 80012c0:	9404      	str	r4, [sp, #16]
 80012c2:	9003      	str	r0, [sp, #12]
 80012c4:	9102      	str	r1, [sp, #8]
 80012c6:	9201      	str	r2, [sp, #4]
 80012c8:	9300      	str	r3, [sp, #0]
 80012ca:	4643      	mov	r3, r8
 80012cc:	4672      	mov	r2, lr
 80012ce:	4661      	mov	r1, ip
 80012d0:	4630      	mov	r0, r6
 80012d2:	f7ff fecb 	bl	800106c <usart_configure_cr2>
	usart_configure_cr3(usart->usart, usart->onebit, usart->ctsie, usart->ctse, usart->rtse, usart->dmat, usart->dmar, usart->scen, usart->nack, usart->hdsel, usart->irlp, usart->iren, usart->eie);
 80012d6:	69fb      	ldr	r3, [r7, #28]
 80012d8:	681b      	ldr	r3, [r3, #0]
 80012da:	61bb      	str	r3, [r7, #24]
 80012dc:	69fb      	ldr	r3, [r7, #28]
 80012de:	f8b3 c038 	ldrh.w	ip, [r3, #56]	@ 0x38
 80012e2:	69fb      	ldr	r3, [r7, #28]
 80012e4:	f8b3 e03a 	ldrh.w	lr, [r3, #58]	@ 0x3a
 80012e8:	69fb      	ldr	r3, [r7, #28]
 80012ea:	f8b3 803c 	ldrh.w	r8, [r3, #60]	@ 0x3c
 80012ee:	69fb      	ldr	r3, [r7, #28]
 80012f0:	8fdb      	ldrh	r3, [r3, #62]	@ 0x3e
 80012f2:	69fa      	ldr	r2, [r7, #28]
 80012f4:	f8b2 2040 	ldrh.w	r2, [r2, #64]	@ 0x40
 80012f8:	617a      	str	r2, [r7, #20]
 80012fa:	69f9      	ldr	r1, [r7, #28]
 80012fc:	f8b1 1042 	ldrh.w	r1, [r1, #66]	@ 0x42
 8001300:	69f8      	ldr	r0, [r7, #28]
 8001302:	f8b0 0044 	ldrh.w	r0, [r0, #68]	@ 0x44
 8001306:	69fc      	ldr	r4, [r7, #28]
 8001308:	f8b4 4046 	ldrh.w	r4, [r4, #70]	@ 0x46
 800130c:	69fd      	ldr	r5, [r7, #28]
 800130e:	f8b5 5048 	ldrh.w	r5, [r5, #72]	@ 0x48
 8001312:	69fe      	ldr	r6, [r7, #28]
 8001314:	f8b6 604a 	ldrh.w	r6, [r6, #74]	@ 0x4a
 8001318:	69fa      	ldr	r2, [r7, #28]
 800131a:	f8b2 204c 	ldrh.w	r2, [r2, #76]	@ 0x4c
 800131e:	613a      	str	r2, [r7, #16]
 8001320:	69fa      	ldr	r2, [r7, #28]
 8001322:	f8b2 204e 	ldrh.w	r2, [r2, #78]	@ 0x4e
 8001326:	9208      	str	r2, [sp, #32]
 8001328:	693a      	ldr	r2, [r7, #16]
 800132a:	9207      	str	r2, [sp, #28]
 800132c:	9606      	str	r6, [sp, #24]
 800132e:	9505      	str	r5, [sp, #20]
 8001330:	9404      	str	r4, [sp, #16]
 8001332:	9003      	str	r0, [sp, #12]
 8001334:	9102      	str	r1, [sp, #8]
 8001336:	697a      	ldr	r2, [r7, #20]
 8001338:	9201      	str	r2, [sp, #4]
 800133a:	9300      	str	r3, [sp, #0]
 800133c:	4643      	mov	r3, r8
 800133e:	4672      	mov	r2, lr
 8001340:	4661      	mov	r1, ip
 8001342:	69b8      	ldr	r0, [r7, #24]
 8001344:	f7ff fed0 	bl	80010e8 <usart_configure_cr3>
	usart_configure_gtpr(usart->usart, usart->gt, usart->psc);
 8001348:	69fb      	ldr	r3, [r7, #28]
 800134a:	6818      	ldr	r0, [r3, #0]
 800134c:	69fb      	ldr	r3, [r7, #28]
 800134e:	f8b3 1054 	ldrh.w	r1, [r3, #84]	@ 0x54
 8001352:	69fb      	ldr	r3, [r7, #28]
 8001354:	f8b3 3056 	ldrh.w	r3, [r3, #86]	@ 0x56
 8001358:	461a      	mov	r2, r3
 800135a:	f7ff ff28 	bl	80011ae <usart_configure_gtpr>
	usart_cr1_configure_ue(usart->usart, 0x1);
 800135e:	69fb      	ldr	r3, [r7, #28]
 8001360:	681b      	ldr	r3, [r3, #0]
 8001362:	2101      	movs	r1, #1
 8001364:	4618      	mov	r0, r3
 8001366:	f000 f81e 	bl	80013a6 <usart_cr1_configure_ue>
}
 800136a:	bf00      	nop
 800136c:	3720      	adds	r7, #32
 800136e:	46bd      	mov	sp, r7
 8001370:	e8bd 81f0 	ldmia.w	sp!, {r4, r5, r6, r7, r8, pc}

08001374 <usart_cr1_configure_over8>:

void usart_cr1_configure_over8(USART_TypeDef* type, uint16_t over8)
{
 8001374:	b480      	push	{r7}
 8001376:	b083      	sub	sp, #12
 8001378:	af00      	add	r7, sp, #0
 800137a:	6078      	str	r0, [r7, #4]
 800137c:	460b      	mov	r3, r1
 800137e:	807b      	strh	r3, [r7, #2]
	type->CR1 = type->CR1 & ~(0x0001 << USART_OVER8);
 8001380:	687b      	ldr	r3, [r7, #4]
 8001382:	68db      	ldr	r3, [r3, #12]
 8001384:	f423 4200 	bic.w	r2, r3, #32768	@ 0x8000
 8001388:	687b      	ldr	r3, [r7, #4]
 800138a:	60da      	str	r2, [r3, #12]
	type->CR1 = type->CR1 | (over8 << USART_OVER8);
 800138c:	687b      	ldr	r3, [r7, #4]
 800138e:	68da      	ldr	r2, [r3, #12]
 8001390:	887b      	ldrh	r3, [r7, #2]
 8001392:	03db      	lsls	r3, r3, #15
 8001394:	431a      	orrs	r2, r3
 8001396:	687b      	ldr	r3, [r7, #4]
 8001398:	60da      	str	r2, [r3, #12]
}
 800139a:	bf00      	nop
 800139c:	370c      	adds	r7, #12
 800139e:	46bd      	mov	sp, r7
 80013a0:	f85d 7b04 	ldr.w	r7, [sp], #4
 80013a4:	4770      	bx	lr

080013a6 <usart_cr1_configure_ue>:

void usart_cr1_configure_ue(USART_TypeDef* type, uint16_t ue)
{
 80013a6:	b480      	push	{r7}
 80013a8:	b083      	sub	sp, #12
 80013aa:	af00      	add	r7, sp, #0
 80013ac:	6078      	str	r0, [r7, #4]
 80013ae:	460b      	mov	r3, r1
 80013b0:	807b      	strh	r3, [r7, #2]
	type->CR1 = type->CR1 & ~(0x0001 << USART_UE);
 80013b2:	687b      	ldr	r3, [r7, #4]
 80013b4:	68db      	ldr	r3, [r3, #12]
 80013b6:	f423 5200 	bic.w	r2, r3, #8192	@ 0x2000
 80013ba:	687b      	ldr	r3, [r7, #4]
 80013bc:	60da      	str	r2, [r3, #12]
	type->CR1 = type->CR1 | (ue << USART_UE);
 80013be:	687b      	ldr	r3, [r7, #4]
 80013c0:	68da      	ldr	r2, [r3, #12]
 80013c2:	887b      	ldrh	r3, [r7, #2]
 80013c4:	035b      	lsls	r3, r3, #13
 80013c6:	431a      	orrs	r2, r3
 80013c8:	687b      	ldr	r3, [r7, #4]
 80013ca:	60da      	str	r2, [r3, #12]
}
 80013cc:	bf00      	nop
 80013ce:	370c      	adds	r7, #12
 80013d0:	46bd      	mov	sp, r7
 80013d2:	f85d 7b04 	ldr.w	r7, [sp], #4
 80013d6:	4770      	bx	lr

080013d8 <usart_cr1_configure_m>:

void usart_cr1_configure_m(USART_TypeDef* type, uint16_t m)
{
 80013d8:	b480      	push	{r7}
 80013da:	b083      	sub	sp, #12
 80013dc:	af00      	add	r7, sp, #0
 80013de:	6078      	str	r0, [r7, #4]
 80013e0:	460b      	mov	r3, r1
 80013e2:	807b      	strh	r3, [r7, #2]
	type->CR1 = type->CR1 & ~(0x0001 << USART_M);
 80013e4:	687b      	ldr	r3, [r7, #4]
 80013e6:	68db      	ldr	r3, [r3, #12]
 80013e8:	f423 5280 	bic.w	r2, r3, #4096	@ 0x1000
 80013ec:	687b      	ldr	r3, [r7, #4]
 80013ee:	60da      	str	r2, [r3, #12]
	type->CR1 = type->CR1 | (m << USART_M);
 80013f0:	687b      	ldr	r3, [r7, #4]
 80013f2:	68da      	ldr	r2, [r3, #12]
 80013f4:	887b      	ldrh	r3, [r7, #2]
 80013f6:	031b      	lsls	r3, r3, #12
 80013f8:	431a      	orrs	r2, r3
 80013fa:	687b      	ldr	r3, [r7, #4]
 80013fc:	60da      	str	r2, [r3, #12]
}
 80013fe:	bf00      	nop
 8001400:	370c      	adds	r7, #12
 8001402:	46bd      	mov	sp, r7
 8001404:	f85d 7b04 	ldr.w	r7, [sp], #4
 8001408:	4770      	bx	lr

0800140a <usart_cr1_configure_wake>:

void usart_cr1_configure_wake(USART_TypeDef* type, uint16_t wake)
{
 800140a:	b480      	push	{r7}
 800140c:	b083      	sub	sp, #12
 800140e:	af00      	add	r7, sp, #0
 8001410:	6078      	str	r0, [r7, #4]
 8001412:	460b      	mov	r3, r1
 8001414:	807b      	strh	r3, [r7, #2]
	type->CR1 = type->CR1 & ~(0x0001 << USART_WAKE);
 8001416:	687b      	ldr	r3, [r7, #4]
 8001418:	68db      	ldr	r3, [r3, #12]
 800141a:	f423 6200 	bic.w	r2, r3, #2048	@ 0x800
 800141e:	687b      	ldr	r3, [r7, #4]
 8001420:	60da      	str	r2, [r3, #12]
	type->CR1 = type->CR1 | (wake << USART_WAKE);
 8001422:	687b      	ldr	r3, [r7, #4]
 8001424:	68da      	ldr	r2, [r3, #12]
 8001426:	887b      	ldrh	r3, [r7, #2]
 8001428:	02db      	lsls	r3, r3, #11
 800142a:	431a      	orrs	r2, r3
 800142c:	687b      	ldr	r3, [r7, #4]
 800142e:	60da      	str	r2, [r3, #12]
}
 8001430:	bf00      	nop
 8001432:	370c      	adds	r7, #12
 8001434:	46bd      	mov	sp, r7
 8001436:	f85d 7b04 	ldr.w	r7, [sp], #4
 800143a:	4770      	bx	lr

0800143c <usart_cr1_configure_pce>:

void usart_cr1_configure_pce(USART_TypeDef* type, uint16_t pce)
{
 800143c:	b480      	push	{r7}
 800143e:	b083      	sub	sp, #12
 8001440:	af00      	add	r7, sp, #0
 8001442:	6078      	str	r0, [r7, #4]
 8001444:	460b      	mov	r3, r1
 8001446:	807b      	strh	r3, [r7, #2]
	type->CR1 = type->CR1 & ~(0x0001 << USART_PCE);
 8001448:	687b      	ldr	r3, [r7, #4]
 800144a:	68db      	ldr	r3, [r3, #12]
 800144c:	f423 6280 	bic.w	r2, r3, #1024	@ 0x400
 8001450:	687b      	ldr	r3, [r7, #4]
 8001452:	60da      	str	r2, [r3, #12]
	type->CR1 = type->CR1 | (pce << USART_PCE);
 8001454:	687b      	ldr	r3, [r7, #4]
 8001456:	68da      	ldr	r2, [r3, #12]
 8001458:	887b      	ldrh	r3, [r7, #2]
 800145a:	029b      	lsls	r3, r3, #10
 800145c:	431a      	orrs	r2, r3
 800145e:	687b      	ldr	r3, [r7, #4]
 8001460:	60da      	str	r2, [r3, #12]
}
 8001462:	bf00      	nop
 8001464:	370c      	adds	r7, #12
 8001466:	46bd      	mov	sp, r7
 8001468:	f85d 7b04 	ldr.w	r7, [sp], #4
 800146c:	4770      	bx	lr

0800146e <usart_cr1_configure_ps>:

void usart_cr1_configure_ps(USART_TypeDef* type, uint16_t ps)
{
 800146e:	b480      	push	{r7}
 8001470:	b083      	sub	sp, #12
 8001472:	af00      	add	r7, sp, #0
 8001474:	6078      	str	r0, [r7, #4]
 8001476:	460b      	mov	r3, r1
 8001478:	807b      	strh	r3, [r7, #2]
	type->CR1 = type->CR1 & ~(0x0001 << USART_PS);
 800147a:	687b      	ldr	r3, [r7, #4]
 800147c:	68db      	ldr	r3, [r3, #12]
 800147e:	f423 7200 	bic.w	r2, r3, #512	@ 0x200
 8001482:	687b      	ldr	r3, [r7, #4]
 8001484:	60da      	str	r2, [r3, #12]
	type->CR1 = type->CR1 | (ps << USART_PS);
 8001486:	687b      	ldr	r3, [r7, #4]
 8001488:	68da      	ldr	r2, [r3, #12]
 800148a:	887b      	ldrh	r3, [r7, #2]
 800148c:	025b      	lsls	r3, r3, #9
 800148e:	431a      	orrs	r2, r3
 8001490:	687b      	ldr	r3, [r7, #4]
 8001492:	60da      	str	r2, [r3, #12]
}
 8001494:	bf00      	nop
 8001496:	370c      	adds	r7, #12
 8001498:	46bd      	mov	sp, r7
 800149a:	f85d 7b04 	ldr.w	r7, [sp], #4
 800149e:	4770      	bx	lr

080014a0 <usart_cr1_configure_peie>:

void usart_cr1_configure_peie(USART_TypeDef* type, uint16_t peie)
{
 80014a0:	b480      	push	{r7}
 80014a2:	b083      	sub	sp, #12
 80014a4:	af00      	add	r7, sp, #0
 80014a6:	6078      	str	r0, [r7, #4]
 80014a8:	460b      	mov	r3, r1
 80014aa:	807b      	strh	r3, [r7, #2]
	type->CR1 = type->CR1 & ~(0x0001 << USART_PEIE);
 80014ac:	687b      	ldr	r3, [r7, #4]
 80014ae:	68db      	ldr	r3, [r3, #12]
 80014b0:	f423 7280 	bic.w	r2, r3, #256	@ 0x100
 80014b4:	687b      	ldr	r3, [r7, #4]
 80014b6:	60da      	str	r2, [r3, #12]
	type->CR1 = type->CR1 | (peie << USART_PEIE);
 80014b8:	687b      	ldr	r3, [r7, #4]
 80014ba:	68da      	ldr	r2, [r3, #12]
 80014bc:	887b      	ldrh	r3, [r7, #2]
 80014be:	021b      	lsls	r3, r3, #8
 80014c0:	431a      	orrs	r2, r3
 80014c2:	687b      	ldr	r3, [r7, #4]
 80014c4:	60da      	str	r2, [r3, #12]
}
 80014c6:	bf00      	nop
 80014c8:	370c      	adds	r7, #12
 80014ca:	46bd      	mov	sp, r7
 80014cc:	f85d 7b04 	ldr.w	r7, [sp], #4
 80014d0:	4770      	bx	lr

080014d2 <usart_cr1_configure_txeie>:

void usart_cr1_configure_txeie(USART_TypeDef* type, uint16_t txeie)
{
 80014d2:	b480      	push	{r7}
 80014d4:	b083      	sub	sp, #12
 80014d6:	af00      	add	r7, sp, #0
 80014d8:	6078      	str	r0, [r7, #4]
 80014da:	460b      	mov	r3, r1
 80014dc:	807b      	strh	r3, [r7, #2]
	type->CR1 = type->CR1 & ~(0x0001 << USART_TXEIE);
 80014de:	687b      	ldr	r3, [r7, #4]
 80014e0:	68db      	ldr	r3, [r3, #12]
 80014e2:	f023 0280 	bic.w	r2, r3, #128	@ 0x80
 80014e6:	687b      	ldr	r3, [r7, #4]
 80014e8:	60da      	str	r2, [r3, #12]
	type->CR1 = type->CR1 | (txeie << USART_TXEIE);
 80014ea:	687b      	ldr	r3, [r7, #4]
 80014ec:	68da      	ldr	r2, [r3, #12]
 80014ee:	887b      	ldrh	r3, [r7, #2]
 80014f0:	01db      	lsls	r3, r3, #7
 80014f2:	431a      	orrs	r2, r3
 80014f4:	687b      	ldr	r3, [r7, #4]
 80014f6:	60da      	str	r2, [r3, #12]
}
 80014f8:	bf00      	nop
 80014fa:	370c      	adds	r7, #12
 80014fc:	46bd      	mov	sp, r7
 80014fe:	f85d 7b04 	ldr.w	r7, [sp], #4
 8001502:	4770      	bx	lr

08001504 <usart_cr1_configure_tcie>:

void usart_cr1_configure_tcie(USART_TypeDef* type, uint16_t tcie)
{
 8001504:	b480      	push	{r7}
 8001506:	b083      	sub	sp, #12
 8001508:	af00      	add	r7, sp, #0
 800150a:	6078      	str	r0, [r7, #4]
 800150c:	460b      	mov	r3, r1
 800150e:	807b      	strh	r3, [r7, #2]
	type->CR1 = type->CR1 & ~(0x0001 << USART_TCIE);
 8001510:	687b      	ldr	r3, [r7, #4]
 8001512:	68db      	ldr	r3, [r3, #12]
 8001514:	f023 0240 	bic.w	r2, r3, #64	@ 0x40
 8001518:	687b      	ldr	r3, [r7, #4]
 800151a:	60da      	str	r2, [r3, #12]
	type->CR1 = type->CR1 | (tcie << USART_TCIE);
 800151c:	687b      	ldr	r3, [r7, #4]
 800151e:	68da      	ldr	r2, [r3, #12]
 8001520:	887b      	ldrh	r3, [r7, #2]
 8001522:	019b      	lsls	r3, r3, #6
 8001524:	431a      	orrs	r2, r3
 8001526:	687b      	ldr	r3, [r7, #4]
 8001528:	60da      	str	r2, [r3, #12]
}
 800152a:	bf00      	nop
 800152c:	370c      	adds	r7, #12
 800152e:	46bd      	mov	sp, r7
 8001530:	f85d 7b04 	ldr.w	r7, [sp], #4
 8001534:	4770      	bx	lr

08001536 <usart_cr1_configure_rxneie>:

void usart_cr1_configure_rxneie(USART_TypeDef* type, uint16_t rxneie)
{
 8001536:	b480      	push	{r7}
 8001538:	b083      	sub	sp, #12
 800153a:	af00      	add	r7, sp, #0
 800153c:	6078      	str	r0, [r7, #4]
 800153e:	460b      	mov	r3, r1
 8001540:	807b      	strh	r3, [r7, #2]
	type->CR1 = type->CR1 & ~(0x0001 << USART_RXNEIE);
 8001542:	687b      	ldr	r3, [r7, #4]
 8001544:	68db      	ldr	r3, [r3, #12]
 8001546:	f023 0220 	bic.w	r2, r3, #32
 800154a:	687b      	ldr	r3, [r7, #4]
 800154c:	60da      	str	r2, [r3, #12]
	type->CR1 = type->CR1 | (rxneie << USART_RXNEIE);
 800154e:	687b      	ldr	r3, [r7, #4]
 8001550:	68da      	ldr	r2, [r3, #12]
 8001552:	887b      	ldrh	r3, [r7, #2]
 8001554:	015b      	lsls	r3, r3, #5
 8001556:	431a      	orrs	r2, r3
 8001558:	687b      	ldr	r3, [r7, #4]
 800155a:	60da      	str	r2, [r3, #12]
}
 800155c:	bf00      	nop
 800155e:	370c      	adds	r7, #12
 8001560:	46bd      	mov	sp, r7
 8001562:	f85d 7b04 	ldr.w	r7, [sp], #4
 8001566:	4770      	bx	lr

08001568 <usart_cr1_configure_idleie>:

void usart_cr1_configure_idleie(USART_TypeDef* type, uint16_t idleie)
{
 8001568:	b480      	push	{r7}
 800156a:	b083      	sub	sp, #12
 800156c:	af00      	add	r7, sp, #0
 800156e:	6078      	str	r0, [r7, #4]
 8001570:	460b      	mov	r3, r1
 8001572:	807b      	strh	r3, [r7, #2]
	type->CR1 = type->CR1 & ~(0x0001 << USART_IDLEIE);
 8001574:	687b      	ldr	r3, [r7, #4]
 8001576:	68db      	ldr	r3, [r3, #12]
 8001578:	f023 0210 	bic.w	r2, r3, #16
 800157c:	687b      	ldr	r3, [r7, #4]
 800157e:	60da      	str	r2, [r3, #12]
	type->CR1 = type->CR1 | (idleie << USART_IDLEIE);
 8001580:	687b      	ldr	r3, [r7, #4]
 8001582:	68da      	ldr	r2, [r3, #12]
 8001584:	887b      	ldrh	r3, [r7, #2]
 8001586:	011b      	lsls	r3, r3, #4
 8001588:	431a      	orrs	r2, r3
 800158a:	687b      	ldr	r3, [r7, #4]
 800158c:	60da      	str	r2, [r3, #12]
}
 800158e:	bf00      	nop
 8001590:	370c      	adds	r7, #12
 8001592:	46bd      	mov	sp, r7
 8001594:	f85d 7b04 	ldr.w	r7, [sp], #4
 8001598:	4770      	bx	lr

0800159a <usart_cr1_configure_te>:

void usart_cr1_configure_te(USART_TypeDef* type, uint16_t te)
{
 800159a:	b480      	push	{r7}
 800159c:	b083      	sub	sp, #12
 800159e:	af00      	add	r7, sp, #0
 80015a0:	6078      	str	r0, [r7, #4]
 80015a2:	460b      	mov	r3, r1
 80015a4:	807b      	strh	r3, [r7, #2]
	type->CR1 = type->CR1 & ~(0x0001 << USART_TE);
 80015a6:	687b      	ldr	r3, [r7, #4]
 80015a8:	68db      	ldr	r3, [r3, #12]
 80015aa:	f023 0208 	bic.w	r2, r3, #8
 80015ae:	687b      	ldr	r3, [r7, #4]
 80015b0:	60da      	str	r2, [r3, #12]
	type->CR1 = type->CR1 | (te << USART_TE);
 80015b2:	687b      	ldr	r3, [r7, #4]
 80015b4:	68da      	ldr	r2, [r3, #12]
 80015b6:	887b      	ldrh	r3, [r7, #2]
 80015b8:	00db      	lsls	r3, r3, #3
 80015ba:	431a      	orrs	r2, r3
 80015bc:	687b      	ldr	r3, [r7, #4]
 80015be:	60da      	str	r2, [r3, #12]
}
 80015c0:	bf00      	nop
 80015c2:	370c      	adds	r7, #12
 80015c4:	46bd      	mov	sp, r7
 80015c6:	f85d 7b04 	ldr.w	r7, [sp], #4
 80015ca:	4770      	bx	lr

080015cc <usart_cr1_configure_re>:

void usart_cr1_configure_re(USART_TypeDef* type, uint16_t re)
{
 80015cc:	b480      	push	{r7}
 80015ce:	b083      	sub	sp, #12
 80015d0:	af00      	add	r7, sp, #0
 80015d2:	6078      	str	r0, [r7, #4]
 80015d4:	460b      	mov	r3, r1
 80015d6:	807b      	strh	r3, [r7, #2]
	type->CR1 = type->CR1 & ~(0x0001 << USART_RE);
 80015d8:	687b      	ldr	r3, [r7, #4]
 80015da:	68db      	ldr	r3, [r3, #12]
 80015dc:	f023 0204 	bic.w	r2, r3, #4
 80015e0:	687b      	ldr	r3, [r7, #4]
 80015e2:	60da      	str	r2, [r3, #12]
	type->CR1 = type->CR1 | (re << USART_RE);
 80015e4:	687b      	ldr	r3, [r7, #4]
 80015e6:	68da      	ldr	r2, [r3, #12]
 80015e8:	887b      	ldrh	r3, [r7, #2]
 80015ea:	009b      	lsls	r3, r3, #2
 80015ec:	431a      	orrs	r2, r3
 80015ee:	687b      	ldr	r3, [r7, #4]
 80015f0:	60da      	str	r2, [r3, #12]
}
 80015f2:	bf00      	nop
 80015f4:	370c      	adds	r7, #12
 80015f6:	46bd      	mov	sp, r7
 80015f8:	f85d 7b04 	ldr.w	r7, [sp], #4
 80015fc:	4770      	bx	lr

080015fe <usart_cr1_configure_rwu>:

void usart_cr1_configure_rwu(USART_TypeDef* type, uint16_t rwu)
{
 80015fe:	b480      	push	{r7}
 8001600:	b083      	sub	sp, #12
 8001602:	af00      	add	r7, sp, #0
 8001604:	6078      	str	r0, [r7, #4]
 8001606:	460b      	mov	r3, r1
 8001608:	807b      	strh	r3, [r7, #2]
	type->CR1 = type->CR1 & ~(0x0001 << USART_RWU);
 800160a:	687b      	ldr	r3, [r7, #4]
 800160c:	68db      	ldr	r3, [r3, #12]
 800160e:	f023 0202 	bic.w	r2, r3, #2
 8001612:	687b      	ldr	r3, [r7, #4]
 8001614:	60da      	str	r2, [r3, #12]
	type->CR1 = type->CR1 | (rwu << USART_RWU);
 8001616:	687b      	ldr	r3, [r7, #4]
 8001618:	68da      	ldr	r2, [r3, #12]
 800161a:	887b      	ldrh	r3, [r7, #2]
 800161c:	005b      	lsls	r3, r3, #1
 800161e:	431a      	orrs	r2, r3
 8001620:	687b      	ldr	r3, [r7, #4]
 8001622:	60da      	str	r2, [r3, #12]
}
 8001624:	bf00      	nop
 8001626:	370c      	adds	r7, #12
 8001628:	46bd      	mov	sp, r7
 800162a:	f85d 7b04 	ldr.w	r7, [sp], #4
 800162e:	4770      	bx	lr

08001630 <usart_cr1_configure_sbk>:

void usart_cr1_configure_sbk(USART_TypeDef* type, uint16_t sbk)
{
 8001630:	b480      	push	{r7}
 8001632:	b083      	sub	sp, #12
 8001634:	af00      	add	r7, sp, #0
 8001636:	6078      	str	r0, [r7, #4]
 8001638:	460b      	mov	r3, r1
 800163a:	807b      	strh	r3, [r7, #2]
	type->CR1 = type->CR1 & ~(0x0001 << USART_SBK);
 800163c:	687b      	ldr	r3, [r7, #4]
 800163e:	68db      	ldr	r3, [r3, #12]
 8001640:	f023 0201 	bic.w	r2, r3, #1
 8001644:	687b      	ldr	r3, [r7, #4]
 8001646:	60da      	str	r2, [r3, #12]
	type->CR1 = type->CR1 | (sbk << USART_SBK);
 8001648:	687b      	ldr	r3, [r7, #4]
 800164a:	68da      	ldr	r2, [r3, #12]
 800164c:	887b      	ldrh	r3, [r7, #2]
 800164e:	431a      	orrs	r2, r3
 8001650:	687b      	ldr	r3, [r7, #4]
 8001652:	60da      	str	r2, [r3, #12]
}
 8001654:	bf00      	nop
 8001656:	370c      	adds	r7, #12
 8001658:	46bd      	mov	sp, r7
 800165a:	f85d 7b04 	ldr.w	r7, [sp], #4
 800165e:	4770      	bx	lr

08001660 <usart_cr2_configure_linen>:

void usart_cr2_configure_linen(USART_TypeDef* type, uint16_t linen)
{
 8001660:	b480      	push	{r7}
 8001662:	b083      	sub	sp, #12
 8001664:	af00      	add	r7, sp, #0
 8001666:	6078      	str	r0, [r7, #4]
 8001668:	460b      	mov	r3, r1
 800166a:	807b      	strh	r3, [r7, #2]
	type->CR2 = type->CR2 & ~(0x0001 << USART_LINEN);
 800166c:	687b      	ldr	r3, [r7, #4]
 800166e:	691b      	ldr	r3, [r3, #16]
 8001670:	f423 4280 	bic.w	r2, r3, #16384	@ 0x4000
 8001674:	687b      	ldr	r3, [r7, #4]
 8001676:	611a      	str	r2, [r3, #16]
	type->CR2 = type->CR2 | (linen << USART_LINEN);
 8001678:	687b      	ldr	r3, [r7, #4]
 800167a:	691a      	ldr	r2, [r3, #16]
 800167c:	887b      	ldrh	r3, [r7, #2]
 800167e:	039b      	lsls	r3, r3, #14
 8001680:	431a      	orrs	r2, r3
 8001682:	687b      	ldr	r3, [r7, #4]
 8001684:	611a      	str	r2, [r3, #16]
}
 8001686:	bf00      	nop
 8001688:	370c      	adds	r7, #12
 800168a:	46bd      	mov	sp, r7
 800168c:	f85d 7b04 	ldr.w	r7, [sp], #4
 8001690:	4770      	bx	lr

08001692 <usart_cr2_configure_stop>:

void usart_cr2_configure_stop(USART_TypeDef* type, uint16_t stop)
{
 8001692:	b480      	push	{r7}
 8001694:	b083      	sub	sp, #12
 8001696:	af00      	add	r7, sp, #0
 8001698:	6078      	str	r0, [r7, #4]
 800169a:	460b      	mov	r3, r1
 800169c:	807b      	strh	r3, [r7, #2]
	type->CR2 = type->CR2 & ~(0x0003 << USART_STOP);
 800169e:	687b      	ldr	r3, [r7, #4]
 80016a0:	691b      	ldr	r3, [r3, #16]
 80016a2:	f423 5240 	bic.w	r2, r3, #12288	@ 0x3000
 80016a6:	687b      	ldr	r3, [r7, #4]
 80016a8:	611a      	str	r2, [r3, #16]
	type->CR2 = type->CR2 | (stop << USART_STOP);
 80016aa:	687b      	ldr	r3, [r7, #4]
 80016ac:	691a      	ldr	r2, [r3, #16]
 80016ae:	887b      	ldrh	r3, [r7, #2]
 80016b0:	031b      	lsls	r3, r3, #12
 80016b2:	431a      	orrs	r2, r3
 80016b4:	687b      	ldr	r3, [r7, #4]
 80016b6:	611a      	str	r2, [r3, #16]
}
 80016b8:	bf00      	nop
 80016ba:	370c      	adds	r7, #12
 80016bc:	46bd      	mov	sp, r7
 80016be:	f85d 7b04 	ldr.w	r7, [sp], #4
 80016c2:	4770      	bx	lr

080016c4 <usart_cr2_configure_clken>:

void usart_cr2_configure_clken(USART_TypeDef* type, uint16_t clken)
{
 80016c4:	b480      	push	{r7}
 80016c6:	b083      	sub	sp, #12
 80016c8:	af00      	add	r7, sp, #0
 80016ca:	6078      	str	r0, [r7, #4]
 80016cc:	460b      	mov	r3, r1
 80016ce:	807b      	strh	r3, [r7, #2]
	type->CR2 = type->CR2 & ~(0x0001 << USART_CLKEN);
 80016d0:	687b      	ldr	r3, [r7, #4]
 80016d2:	691b      	ldr	r3, [r3, #16]
 80016d4:	f423 6200 	bic.w	r2, r3, #2048	@ 0x800
 80016d8:	687b      	ldr	r3, [r7, #4]
 80016da:	611a      	str	r2, [r3, #16]
	type->CR2 = type->CR2 | (clken << USART_CLKEN);
 80016dc:	687b      	ldr	r3, [r7, #4]
 80016de:	691a      	ldr	r2, [r3, #16]
 80016e0:	887b      	ldrh	r3, [r7, #2]
 80016e2:	02db      	lsls	r3, r3, #11
 80016e4:	431a      	orrs	r2, r3
 80016e6:	687b      	ldr	r3, [r7, #4]
 80016e8:	611a      	str	r2, [r3, #16]
}
 80016ea:	bf00      	nop
 80016ec:	370c      	adds	r7, #12
 80016ee:	46bd      	mov	sp, r7
 80016f0:	f85d 7b04 	ldr.w	r7, [sp], #4
 80016f4:	4770      	bx	lr

080016f6 <usart_cr2_configure_cpol>:

void usart_cr2_configure_cpol(USART_TypeDef* type, uint16_t cpol)
{
 80016f6:	b480      	push	{r7}
 80016f8:	b083      	sub	sp, #12
 80016fa:	af00      	add	r7, sp, #0
 80016fc:	6078      	str	r0, [r7, #4]
 80016fe:	460b      	mov	r3, r1
 8001700:	807b      	strh	r3, [r7, #2]
	type->CR2 = type->CR2 & ~(0x0001 << USART_CPOL);
 8001702:	687b      	ldr	r3, [r7, #4]
 8001704:	691b      	ldr	r3, [r3, #16]
 8001706:	f423 6280 	bic.w	r2, r3, #1024	@ 0x400
 800170a:	687b      	ldr	r3, [r7, #4]
 800170c:	611a      	str	r2, [r3, #16]
	type->CR2 = type->CR2 | (cpol << USART_CPOL);
 800170e:	687b      	ldr	r3, [r7, #4]
 8001710:	691a      	ldr	r2, [r3, #16]
 8001712:	887b      	ldrh	r3, [r7, #2]
 8001714:	029b      	lsls	r3, r3, #10
 8001716:	431a      	orrs	r2, r3
 8001718:	687b      	ldr	r3, [r7, #4]
 800171a:	611a      	str	r2, [r3, #16]
}
 800171c:	bf00      	nop
 800171e:	370c      	adds	r7, #12
 8001720:	46bd      	mov	sp, r7
 8001722:	f85d 7b04 	ldr.w	r7, [sp], #4
 8001726:	4770      	bx	lr

08001728 <usart_cr2_configure_cpha>:

void usart_cr2_configure_cpha(USART_TypeDef* type, uint16_t cpha)
{
 8001728:	b480      	push	{r7}
 800172a:	b083      	sub	sp, #12
 800172c:	af00      	add	r7, sp, #0
 800172e:	6078      	str	r0, [r7, #4]
 8001730:	460b      	mov	r3, r1
 8001732:	807b      	strh	r3, [r7, #2]
	type->CR2 = type->CR2 & ~(0x0001 << USART_CPHA);
 8001734:	687b      	ldr	r3, [r7, #4]
 8001736:	691b      	ldr	r3, [r3, #16]
 8001738:	f423 7200 	bic.w	r2, r3, #512	@ 0x200
 800173c:	687b      	ldr	r3, [r7, #4]
 800173e:	611a      	str	r2, [r3, #16]
	type->CR2 = type->CR2 | (cpha << USART_CPHA);
 8001740:	687b      	ldr	r3, [r7, #4]
 8001742:	691a      	ldr	r2, [r3, #16]
 8001744:	887b      	ldrh	r3, [r7, #2]
 8001746:	025b      	lsls	r3, r3, #9
 8001748:	431a      	orrs	r2, r3
 800174a:	687b      	ldr	r3, [r7, #4]
 800174c:	611a      	str	r2, [r3, #16]
}
 800174e:	bf00      	nop
 8001750:	370c      	adds	r7, #12
 8001752:	46bd      	mov	sp, r7
 8001754:	f85d 7b04 	ldr.w	r7, [sp], #4
 8001758:	4770      	bx	lr

0800175a <usart_cr2_configure_lbcl>:

void usart_cr2_configure_lbcl(USART_TypeDef* type, uint16_t lbcl)
{
 800175a:	b480      	push	{r7}
 800175c:	b083      	sub	sp, #12
 800175e:	af00      	add	r7, sp, #0
 8001760:	6078      	str	r0, [r7, #4]
 8001762:	460b      	mov	r3, r1
 8001764:	807b      	strh	r3, [r7, #2]
	type->CR2 = type->CR2 & ~(0x0001 << USART_LBCL);
 8001766:	687b      	ldr	r3, [r7, #4]
 8001768:	691b      	ldr	r3, [r3, #16]
 800176a:	f423 7280 	bic.w	r2, r3, #256	@ 0x100
 800176e:	687b      	ldr	r3, [r7, #4]
 8001770:	611a      	str	r2, [r3, #16]
	type->CR2 = type->CR2 | (lbcl << USART_LBCL);
 8001772:	687b      	ldr	r3, [r7, #4]
 8001774:	691a      	ldr	r2, [r3, #16]
 8001776:	887b      	ldrh	r3, [r7, #2]
 8001778:	021b      	lsls	r3, r3, #8
 800177a:	431a      	orrs	r2, r3
 800177c:	687b      	ldr	r3, [r7, #4]
 800177e:	611a      	str	r2, [r3, #16]
}
 8001780:	bf00      	nop
 8001782:	370c      	adds	r7, #12
 8001784:	46bd      	mov	sp, r7
 8001786:	f85d 7b04 	ldr.w	r7, [sp], #4
 800178a:	4770      	bx	lr

0800178c <usart_cr2_configure_lbdie>:

void usart_cr2_configure_lbdie(USART_TypeDef* type, uint16_t lbdie)
{
 800178c:	b480      	push	{r7}
 800178e:	b083      	sub	sp, #12
 8001790:	af00      	add	r7, sp, #0
 8001792:	6078      	str	r0, [r7, #4]
 8001794:	460b      	mov	r3, r1
 8001796:	807b      	strh	r3, [r7, #2]
	type->CR2 = type->CR2 & ~(0x0001 << USART_LBDIE);
 8001798:	687b      	ldr	r3, [r7, #4]
 800179a:	691b      	ldr	r3, [r3, #16]
 800179c:	f023 0240 	bic.w	r2, r3, #64	@ 0x40
 80017a0:	687b      	ldr	r3, [r7, #4]
 80017a2:	611a      	str	r2, [r3, #16]
	type->CR2 = type->CR2 | (lbdie << USART_LBDIE);
 80017a4:	687b      	ldr	r3, [r7, #4]
 80017a6:	691a      	ldr	r2, [r3, #16]
 80017a8:	887b      	ldrh	r3, [r7, #2]
 80017aa:	019b      	lsls	r3, r3, #6
 80017ac:	431a      	orrs	r2, r3
 80017ae:	687b      	ldr	r3, [r7, #4]
 80017b0:	611a      	str	r2, [r3, #16]
}
 80017b2:	bf00      	nop
 80017b4:	370c      	adds	r7, #12
 80017b6:	46bd      	mov	sp, r7
 80017b8:	f85d 7b04 	ldr.w	r7, [sp], #4
 80017bc:	4770      	bx	lr

080017be <usart_cr2_configure_lbdl>:

void usart_cr2_configure_lbdl(USART_TypeDef* type, uint16_t lbdl)
{
 80017be:	b480      	push	{r7}
 80017c0:	b083      	sub	sp, #12
 80017c2:	af00      	add	r7, sp, #0
 80017c4:	6078      	str	r0, [r7, #4]
 80017c6:	460b      	mov	r3, r1
 80017c8:	807b      	strh	r3, [r7, #2]
	type->CR2 = type->CR2 & ~(0x0001 << USART_LBDL);
 80017ca:	687b      	ldr	r3, [r7, #4]
 80017cc:	691b      	ldr	r3, [r3, #16]
 80017ce:	f023 0220 	bic.w	r2, r3, #32
 80017d2:	687b      	ldr	r3, [r7, #4]
 80017d4:	611a      	str	r2, [r3, #16]
	type->CR2 = type->CR2 | (lbdl << USART_LBDL);
 80017d6:	687b      	ldr	r3, [r7, #4]
 80017d8:	691a      	ldr	r2, [r3, #16]
 80017da:	887b      	ldrh	r3, [r7, #2]
 80017dc:	015b      	lsls	r3, r3, #5
 80017de:	431a      	orrs	r2, r3
 80017e0:	687b      	ldr	r3, [r7, #4]
 80017e2:	611a      	str	r2, [r3, #16]
}
 80017e4:	bf00      	nop
 80017e6:	370c      	adds	r7, #12
 80017e8:	46bd      	mov	sp, r7
 80017ea:	f85d 7b04 	ldr.w	r7, [sp], #4
 80017ee:	4770      	bx	lr

080017f0 <usart_cr2_configure_add>:

void usart_cr2_configure_add(USART_TypeDef* type, uint16_t add)
{
 80017f0:	b480      	push	{r7}
 80017f2:	b083      	sub	sp, #12
 80017f4:	af00      	add	r7, sp, #0
 80017f6:	6078      	str	r0, [r7, #4]
 80017f8:	460b      	mov	r3, r1
 80017fa:	807b      	strh	r3, [r7, #2]
	type->CR2 = type->CR2 & ~(0x000F << USART_ADD);
 80017fc:	687b      	ldr	r3, [r7, #4]
 80017fe:	691b      	ldr	r3, [r3, #16]
 8001800:	f023 020f 	bic.w	r2, r3, #15
 8001804:	687b      	ldr	r3, [r7, #4]
 8001806:	611a      	str	r2, [r3, #16]
	type->CR2 = type->CR2 | (add << USART_ADD);
 8001808:	687b      	ldr	r3, [r7, #4]
 800180a:	691a      	ldr	r2, [r3, #16]
 800180c:	887b      	ldrh	r3, [r7, #2]
 800180e:	431a      	orrs	r2, r3
 8001810:	687b      	ldr	r3, [r7, #4]
 8001812:	611a      	str	r2, [r3, #16]
}
 8001814:	bf00      	nop
 8001816:	370c      	adds	r7, #12
 8001818:	46bd      	mov	sp, r7
 800181a:	f85d 7b04 	ldr.w	r7, [sp], #4
 800181e:	4770      	bx	lr

08001820 <usart_cr3_configure_onebit>:

void usart_cr3_configure_onebit(USART_TypeDef* type, uint16_t onebit)
{
 8001820:	b480      	push	{r7}
 8001822:	b083      	sub	sp, #12
 8001824:	af00      	add	r7, sp, #0
 8001826:	6078      	str	r0, [r7, #4]
 8001828:	460b      	mov	r3, r1
 800182a:	807b      	strh	r3, [r7, #2]
	type->CR3 = type->CR3 & ~(0x0001 << USART_ONEBIT);
 800182c:	687b      	ldr	r3, [r7, #4]
 800182e:	695b      	ldr	r3, [r3, #20]
 8001830:	f423 6200 	bic.w	r2, r3, #2048	@ 0x800
 8001834:	687b      	ldr	r3, [r7, #4]
 8001836:	615a      	str	r2, [r3, #20]
	type->CR3 = type->CR3 | (onebit << USART_ONEBIT);
 8001838:	687b      	ldr	r3, [r7, #4]
 800183a:	695a      	ldr	r2, [r3, #20]
 800183c:	887b      	ldrh	r3, [r7, #2]
 800183e:	02db      	lsls	r3, r3, #11
 8001840:	431a      	orrs	r2, r3
 8001842:	687b      	ldr	r3, [r7, #4]
 8001844:	615a      	str	r2, [r3, #20]
}
 8001846:	bf00      	nop
 8001848:	370c      	adds	r7, #12
 800184a:	46bd      	mov	sp, r7
 800184c:	f85d 7b04 	ldr.w	r7, [sp], #4
 8001850:	4770      	bx	lr

08001852 <usart_cr3_configure_ctsie>:

void usart_cr3_configure_ctsie(USART_TypeDef* type, uint16_t ctsie)
{
 8001852:	b480      	push	{r7}
 8001854:	b083      	sub	sp, #12
 8001856:	af00      	add	r7, sp, #0
 8001858:	6078      	str	r0, [r7, #4]
 800185a:	460b      	mov	r3, r1
 800185c:	807b      	strh	r3, [r7, #2]
	type->CR3 = type->CR3 & ~(0x0001 << USART_CTSIE);
 800185e:	687b      	ldr	r3, [r7, #4]
 8001860:	695b      	ldr	r3, [r3, #20]
 8001862:	f423 6280 	bic.w	r2, r3, #1024	@ 0x400
 8001866:	687b      	ldr	r3, [r7, #4]
 8001868:	615a      	str	r2, [r3, #20]
	type->CR3 = type->CR3 | (ctsie << USART_CTSIE);
 800186a:	687b      	ldr	r3, [r7, #4]
 800186c:	695a      	ldr	r2, [r3, #20]
 800186e:	887b      	ldrh	r3, [r7, #2]
 8001870:	029b      	lsls	r3, r3, #10
 8001872:	431a      	orrs	r2, r3
 8001874:	687b      	ldr	r3, [r7, #4]
 8001876:	615a      	str	r2, [r3, #20]
}
 8001878:	bf00      	nop
 800187a:	370c      	adds	r7, #12
 800187c:	46bd      	mov	sp, r7
 800187e:	f85d 7b04 	ldr.w	r7, [sp], #4
 8001882:	4770      	bx	lr

08001884 <usart_cr3_configure_ctse>:

void usart_cr3_configure_ctse(USART_TypeDef* type, uint16_t ctse)
{
 8001884:	b480      	push	{r7}
 8001886:	b083      	sub	sp, #12
 8001888:	af00      	add	r7, sp, #0
 800188a:	6078      	str	r0, [r7, #4]
 800188c:	460b      	mov	r3, r1
 800188e:	807b      	strh	r3, [r7, #2]
	type->CR3 = type->CR3 & ~(0x0001 << USART_CTSE);
 8001890:	687b      	ldr	r3, [r7, #4]
 8001892:	695b      	ldr	r3, [r3, #20]
 8001894:	f423 7200 	bic.w	r2, r3, #512	@ 0x200
 8001898:	687b      	ldr	r3, [r7, #4]
 800189a:	615a      	str	r2, [r3, #20]
	type->CR3 = type->CR3 | (ctse << USART_CTSE);
 800189c:	687b      	ldr	r3, [r7, #4]
 800189e:	695a      	ldr	r2, [r3, #20]
 80018a0:	887b      	ldrh	r3, [r7, #2]
 80018a2:	025b      	lsls	r3, r3, #9
 80018a4:	431a      	orrs	r2, r3
 80018a6:	687b      	ldr	r3, [r7, #4]
 80018a8:	615a      	str	r2, [r3, #20]
}
 80018aa:	bf00      	nop
 80018ac:	370c      	adds	r7, #12
 80018ae:	46bd      	mov	sp, r7
 80018b0:	f85d 7b04 	ldr.w	r7, [sp], #4
 80018b4:	4770      	bx	lr

080018b6 <usart_cr3_configure_rtse>:

void usart_cr3_configure_rtse(USART_TypeDef* type, uint16_t rtse)
{
 80018b6:	b480      	push	{r7}
 80018b8:	b083      	sub	sp, #12
 80018ba:	af00      	add	r7, sp, #0
 80018bc:	6078      	str	r0, [r7, #4]
 80018be:	460b      	mov	r3, r1
 80018c0:	807b      	strh	r3, [r7, #2]
	type->CR3 = type->CR3 & ~(0x0001 << USART_RTSE);
 80018c2:	687b      	ldr	r3, [r7, #4]
 80018c4:	695b      	ldr	r3, [r3, #20]
 80018c6:	f423 7280 	bic.w	r2, r3, #256	@ 0x100
 80018ca:	687b      	ldr	r3, [r7, #4]
 80018cc:	615a      	str	r2, [r3, #20]
	type->CR3 = type->CR3 | (rtse << USART_RTSE);
 80018ce:	687b      	ldr	r3, [r7, #4]
 80018d0:	695a      	ldr	r2, [r3, #20]
 80018d2:	887b      	ldrh	r3, [r7, #2]
 80018d4:	021b      	lsls	r3, r3, #8
 80018d6:	431a      	orrs	r2, r3
 80018d8:	687b      	ldr	r3, [r7, #4]
 80018da:	615a      	str	r2, [r3, #20]
}
 80018dc:	bf00      	nop
 80018de:	370c      	adds	r7, #12
 80018e0:	46bd      	mov	sp, r7
 80018e2:	f85d 7b04 	ldr.w	r7, [sp], #4
 80018e6:	4770      	bx	lr

080018e8 <usart_cr3_configure_dmat>:

void usart_cr3_configure_dmat(USART_TypeDef* type, uint16_t dmat)
{
 80018e8:	b480      	push	{r7}
 80018ea:	b083      	sub	sp, #12
 80018ec:	af00      	add	r7, sp, #0
 80018ee:	6078      	str	r0, [r7, #4]
 80018f0:	460b      	mov	r3, r1
 80018f2:	807b      	strh	r3, [r7, #2]
	type->CR3 = type->CR3 & ~(0x0001 << USART_DMAT);
 80018f4:	687b      	ldr	r3, [r7, #4]
 80018f6:	695b      	ldr	r3, [r3, #20]
 80018f8:	f023 0280 	bic.w	r2, r3, #128	@ 0x80
 80018fc:	687b      	ldr	r3, [r7, #4]
 80018fe:	615a      	str	r2, [r3, #20]
	type->CR3 = type->CR3 | (dmat << USART_DMAT);
 8001900:	687b      	ldr	r3, [r7, #4]
 8001902:	695a      	ldr	r2, [r3, #20]
 8001904:	887b      	ldrh	r3, [r7, #2]
 8001906:	01db      	lsls	r3, r3, #7
 8001908:	431a      	orrs	r2, r3
 800190a:	687b      	ldr	r3, [r7, #4]
 800190c:	615a      	str	r2, [r3, #20]
}
 800190e:	bf00      	nop
 8001910:	370c      	adds	r7, #12
 8001912:	46bd      	mov	sp, r7
 8001914:	f85d 7b04 	ldr.w	r7, [sp], #4
 8001918:	4770      	bx	lr

0800191a <usart_cr3_configure_dmar>:

void usart_cr3_configure_dmar(USART_TypeDef* type, uint16_t dmar)
{
 800191a:	b480      	push	{r7}
 800191c:	b083      	sub	sp, #12
 800191e:	af00      	add	r7, sp, #0
 8001920:	6078      	str	r0, [r7, #4]
 8001922:	460b      	mov	r3, r1
 8001924:	807b      	strh	r3, [r7, #2]
	type->CR3 = type->CR3 & ~(0x0001 << USART_DMAR);
 8001926:	687b      	ldr	r3, [r7, #4]
 8001928:	695b      	ldr	r3, [r3, #20]
 800192a:	f023 0240 	bic.w	r2, r3, #64	@ 0x40
 800192e:	687b      	ldr	r3, [r7, #4]
 8001930:	615a      	str	r2, [r3, #20]
	type->CR3 = type->CR3 | (dmar << USART_DMAR);
 8001932:	687b      	ldr	r3, [r7, #4]
 8001934:	695a      	ldr	r2, [r3, #20]
 8001936:	887b      	ldrh	r3, [r7, #2]
 8001938:	019b      	lsls	r3, r3, #6
 800193a:	431a      	orrs	r2, r3
 800193c:	687b      	ldr	r3, [r7, #4]
 800193e:	615a      	str	r2, [r3, #20]
}
 8001940:	bf00      	nop
 8001942:	370c      	adds	r7, #12
 8001944:	46bd      	mov	sp, r7
 8001946:	f85d 7b04 	ldr.w	r7, [sp], #4
 800194a:	4770      	bx	lr

0800194c <usart_cr3_configure_scen>:

void usart_cr3_configure_scen(USART_TypeDef* type, uint16_t scen)
{
 800194c:	b480      	push	{r7}
 800194e:	b083      	sub	sp, #12
 8001950:	af00      	add	r7, sp, #0
 8001952:	6078      	str	r0, [r7, #4]
 8001954:	460b      	mov	r3, r1
 8001956:	807b      	strh	r3, [r7, #2]
	type->CR3 = type->CR3 & ~(0x0001 << USART_SCEN);
 8001958:	687b      	ldr	r3, [r7, #4]
 800195a:	695b      	ldr	r3, [r3, #20]
 800195c:	f023 0220 	bic.w	r2, r3, #32
 8001960:	687b      	ldr	r3, [r7, #4]
 8001962:	615a      	str	r2, [r3, #20]
	type->CR3 = type->CR3 | (scen << USART_SCEN);
 8001964:	687b      	ldr	r3, [r7, #4]
 8001966:	695a      	ldr	r2, [r3, #20]
 8001968:	887b      	ldrh	r3, [r7, #2]
 800196a:	015b      	lsls	r3, r3, #5
 800196c:	431a      	orrs	r2, r3
 800196e:	687b      	ldr	r3, [r7, #4]
 8001970:	615a      	str	r2, [r3, #20]
}
 8001972:	bf00      	nop
 8001974:	370c      	adds	r7, #12
 8001976:	46bd      	mov	sp, r7
 8001978:	f85d 7b04 	ldr.w	r7, [sp], #4
 800197c:	4770      	bx	lr

0800197e <usart_cr3_configure_nack>:

void usart_cr3_configure_nack(USART_TypeDef* type, uint16_t nack)
{
 800197e:	b480      	push	{r7}
 8001980:	b083      	sub	sp, #12
 8001982:	af00      	add	r7, sp, #0
 8001984:	6078      	str	r0, [r7, #4]
 8001986:	460b      	mov	r3, r1
 8001988:	807b      	strh	r3, [r7, #2]
	type->CR3 = type->CR3 & ~(0x0001 << USART_NACK);
 800198a:	687b      	ldr	r3, [r7, #4]
 800198c:	695b      	ldr	r3, [r3, #20]
 800198e:	f023 0210 	bic.w	r2, r3, #16
 8001992:	687b      	ldr	r3, [r7, #4]
 8001994:	615a      	str	r2, [r3, #20]
	type->CR3 = type->CR3 | (nack << USART_NACK);
 8001996:	687b      	ldr	r3, [r7, #4]
 8001998:	695a      	ldr	r2, [r3, #20]
 800199a:	887b      	ldrh	r3, [r7, #2]
 800199c:	011b      	lsls	r3, r3, #4
 800199e:	431a      	orrs	r2, r3
 80019a0:	687b      	ldr	r3, [r7, #4]
 80019a2:	615a      	str	r2, [r3, #20]
}
 80019a4:	bf00      	nop
 80019a6:	370c      	adds	r7, #12
 80019a8:	46bd      	mov	sp, r7
 80019aa:	f85d 7b04 	ldr.w	r7, [sp], #4
 80019ae:	4770      	bx	lr

080019b0 <usart_cr3_configure_hdsel>:

void usart_cr3_configure_hdsel(USART_TypeDef* type, uint16_t hdsel)
{
 80019b0:	b480      	push	{r7}
 80019b2:	b083      	sub	sp, #12
 80019b4:	af00      	add	r7, sp, #0
 80019b6:	6078      	str	r0, [r7, #4]
 80019b8:	460b      	mov	r3, r1
 80019ba:	807b      	strh	r3, [r7, #2]
	type->CR3 = type->CR3 & ~(0x0001 << USART_HDSEL);
 80019bc:	687b      	ldr	r3, [r7, #4]
 80019be:	695b      	ldr	r3, [r3, #20]
 80019c0:	f023 0208 	bic.w	r2, r3, #8
 80019c4:	687b      	ldr	r3, [r7, #4]
 80019c6:	615a      	str	r2, [r3, #20]
	type->CR3 = type->CR3 | (hdsel << USART_HDSEL);
 80019c8:	687b      	ldr	r3, [r7, #4]
 80019ca:	695a      	ldr	r2, [r3, #20]
 80019cc:	887b      	ldrh	r3, [r7, #2]
 80019ce:	00db      	lsls	r3, r3, #3
 80019d0:	431a      	orrs	r2, r3
 80019d2:	687b      	ldr	r3, [r7, #4]
 80019d4:	615a      	str	r2, [r3, #20]
}
 80019d6:	bf00      	nop
 80019d8:	370c      	adds	r7, #12
 80019da:	46bd      	mov	sp, r7
 80019dc:	f85d 7b04 	ldr.w	r7, [sp], #4
 80019e0:	4770      	bx	lr

080019e2 <usart_cr3_configure_irlp>:

void usart_cr3_configure_irlp(USART_TypeDef* type, uint16_t irlp)
{
 80019e2:	b480      	push	{r7}
 80019e4:	b083      	sub	sp, #12
 80019e6:	af00      	add	r7, sp, #0
 80019e8:	6078      	str	r0, [r7, #4]
 80019ea:	460b      	mov	r3, r1
 80019ec:	807b      	strh	r3, [r7, #2]
	type->CR3 = type->CR3 & ~(0x0001 << USART_IRLP);
 80019ee:	687b      	ldr	r3, [r7, #4]
 80019f0:	695b      	ldr	r3, [r3, #20]
 80019f2:	f023 0204 	bic.w	r2, r3, #4
 80019f6:	687b      	ldr	r3, [r7, #4]
 80019f8:	615a      	str	r2, [r3, #20]
	type->CR3 = type->CR3 | (irlp << USART_IRLP);
 80019fa:	687b      	ldr	r3, [r7, #4]
 80019fc:	695a      	ldr	r2, [r3, #20]
 80019fe:	887b      	ldrh	r3, [r7, #2]
 8001a00:	009b      	lsls	r3, r3, #2
 8001a02:	431a      	orrs	r2, r3
 8001a04:	687b      	ldr	r3, [r7, #4]
 8001a06:	615a      	str	r2, [r3, #20]
}
 8001a08:	bf00      	nop
 8001a0a:	370c      	adds	r7, #12
 8001a0c:	46bd      	mov	sp, r7
 8001a0e:	f85d 7b04 	ldr.w	r7, [sp], #4
 8001a12:	4770      	bx	lr

08001a14 <usart_cr3_configure_iren>:

void usart_cr3_configure_iren(USART_TypeDef* type, uint16_t iren)
{
 8001a14:	b480      	push	{r7}
 8001a16:	b083      	sub	sp, #12
 8001a18:	af00      	add	r7, sp, #0
 8001a1a:	6078      	str	r0, [r7, #4]
 8001a1c:	460b      	mov	r3, r1
 8001a1e:	807b      	strh	r3, [r7, #2]
	type->CR3 = type->CR3 & ~(0x0001 << USART_IREN);
 8001a20:	687b      	ldr	r3, [r7, #4]
 8001a22:	695b      	ldr	r3, [r3, #20]
 8001a24:	f023 0202 	bic.w	r2, r3, #2
 8001a28:	687b      	ldr	r3, [r7, #4]
 8001a2a:	615a      	str	r2, [r3, #20]
	type->CR3 = type->CR3 | (iren << USART_IREN);
 8001a2c:	687b      	ldr	r3, [r7, #4]
 8001a2e:	695a      	ldr	r2, [r3, #20]
 8001a30:	887b      	ldrh	r3, [r7, #2]
 8001a32:	005b      	lsls	r3, r3, #1
 8001a34:	431a      	orrs	r2, r3
 8001a36:	687b      	ldr	r3, [r7, #4]
 8001a38:	615a      	str	r2, [r3, #20]
}
 8001a3a:	bf00      	nop
 8001a3c:	370c      	adds	r7, #12
 8001a3e:	46bd      	mov	sp, r7
 8001a40:	f85d 7b04 	ldr.w	r7, [sp], #4
 8001a44:	4770      	bx	lr

08001a46 <usart_cr3_configure_eie>:

void usart_cr3_configure_eie(USART_TypeDef* type, uint16_t eie)
{
 8001a46:	b480      	push	{r7}
 8001a48:	b083      	sub	sp, #12
 8001a4a:	af00      	add	r7, sp, #0
 8001a4c:	6078      	str	r0, [r7, #4]
 8001a4e:	460b      	mov	r3, r1
 8001a50:	807b      	strh	r3, [r7, #2]
	type->CR3 = type->CR3 & ~(0x0001 << USART_EIE);
 8001a52:	687b      	ldr	r3, [r7, #4]
 8001a54:	695b      	ldr	r3, [r3, #20]
 8001a56:	f023 0201 	bic.w	r2, r3, #1
 8001a5a:	687b      	ldr	r3, [r7, #4]
 8001a5c:	615a      	str	r2, [r3, #20]
	type->CR3 = type->CR3 | (eie << USART_EIE);
 8001a5e:	687b      	ldr	r3, [r7, #4]
 8001a60:	695a      	ldr	r2, [r3, #20]
 8001a62:	887b      	ldrh	r3, [r7, #2]
 8001a64:	431a      	orrs	r2, r3
 8001a66:	687b      	ldr	r3, [r7, #4]
 8001a68:	615a      	str	r2, [r3, #20]
}
 8001a6a:	bf00      	nop
 8001a6c:	370c      	adds	r7, #12
 8001a6e:	46bd      	mov	sp, r7
 8001a70:	f85d 7b04 	ldr.w	r7, [sp], #4
 8001a74:	4770      	bx	lr

08001a76 <usart_brr_configure_div_mantissa>:

void usart_brr_configure_div_mantissa(USART_TypeDef* type, uint16_t div_mantissa)
{
 8001a76:	b480      	push	{r7}
 8001a78:	b083      	sub	sp, #12
 8001a7a:	af00      	add	r7, sp, #0
 8001a7c:	6078      	str	r0, [r7, #4]
 8001a7e:	460b      	mov	r3, r1
 8001a80:	807b      	strh	r3, [r7, #2]
	type->BRR = type->BRR & ~(0x0FFF << USART_DIV_Mantissa);
 8001a82:	687b      	ldr	r3, [r7, #4]
 8001a84:	689b      	ldr	r3, [r3, #8]
 8001a86:	f423 437f 	bic.w	r3, r3, #65280	@ 0xff00
 8001a8a:	f023 03f0 	bic.w	r3, r3, #240	@ 0xf0
 8001a8e:	687a      	ldr	r2, [r7, #4]
 8001a90:	6093      	str	r3, [r2, #8]
	type->BRR = type->BRR | (div_mantissa << USART_DIV_Mantissa);
 8001a92:	687b      	ldr	r3, [r7, #4]
 8001a94:	689a      	ldr	r2, [r3, #8]
 8001a96:	887b      	ldrh	r3, [r7, #2]
 8001a98:	011b      	lsls	r3, r3, #4
 8001a9a:	431a      	orrs	r2, r3
 8001a9c:	687b      	ldr	r3, [r7, #4]
 8001a9e:	609a      	str	r2, [r3, #8]
}
 8001aa0:	bf00      	nop
 8001aa2:	370c      	adds	r7, #12
 8001aa4:	46bd      	mov	sp, r7
 8001aa6:	f85d 7b04 	ldr.w	r7, [sp], #4
 8001aaa:	4770      	bx	lr

08001aac <usart_brr_configure_div_fraction>:

void usart_brr_configure_div_fraction(USART_TypeDef* type, uint16_t div_fraction)
{
 8001aac:	b480      	push	{r7}
 8001aae:	b083      	sub	sp, #12
 8001ab0:	af00      	add	r7, sp, #0
 8001ab2:	6078      	str	r0, [r7, #4]
 8001ab4:	460b      	mov	r3, r1
 8001ab6:	807b      	strh	r3, [r7, #2]
	type->BRR = type->BRR & ~(0x000F << USART_DIV_Fraction);
 8001ab8:	687b      	ldr	r3, [r7, #4]
 8001aba:	689b      	ldr	r3, [r3, #8]
 8001abc:	f023 020f 	bic.w	r2, r3, #15
 8001ac0:	687b      	ldr	r3, [r7, #4]
 8001ac2:	609a      	str	r2, [r3, #8]
	type->BRR = type->BRR | (div_fraction << USART_DIV_Fraction);
 8001ac4:	687b      	ldr	r3, [r7, #4]
 8001ac6:	689a      	ldr	r2, [r3, #8]
 8001ac8:	887b      	ldrh	r3, [r7, #2]
 8001aca:	431a      	orrs	r2, r3
 8001acc:	687b      	ldr	r3, [r7, #4]
 8001ace:	609a      	str	r2, [r3, #8]
}
 8001ad0:	bf00      	nop
 8001ad2:	370c      	adds	r7, #12
 8001ad4:	46bd      	mov	sp, r7
 8001ad6:	f85d 7b04 	ldr.w	r7, [sp], #4
 8001ada:	4770      	bx	lr

08001adc <usart_gtpr_configure_gt>:

void usart_gtpr_configure_gt(USART_TypeDef* type, uint16_t gt)
{
 8001adc:	b480      	push	{r7}
 8001ade:	b083      	sub	sp, #12
 8001ae0:	af00      	add	r7, sp, #0
 8001ae2:	6078      	str	r0, [r7, #4]
 8001ae4:	460b      	mov	r3, r1
 8001ae6:	807b      	strh	r3, [r7, #2]
	type->GTPR = type->GTPR & ~(0x00FF << USART_GT);
 8001ae8:	687b      	ldr	r3, [r7, #4]
 8001aea:	699b      	ldr	r3, [r3, #24]
 8001aec:	f423 427f 	bic.w	r2, r3, #65280	@ 0xff00
 8001af0:	687b      	ldr	r3, [r7, #4]
 8001af2:	619a      	str	r2, [r3, #24]
	type->GTPR = type->GTPR | (gt << USART_GT);
 8001af4:	687b      	ldr	r3, [r7, #4]
 8001af6:	699a      	ldr	r2, [r3, #24]
 8001af8:	887b      	ldrh	r3, [r7, #2]
 8001afa:	021b      	lsls	r3, r3, #8
 8001afc:	431a      	orrs	r2, r3
 8001afe:	687b      	ldr	r3, [r7, #4]
 8001b00:	619a      	str	r2, [r3, #24]
}
 8001b02:	bf00      	nop
 8001b04:	370c      	adds	r7, #12
 8001b06:	46bd      	mov	sp, r7
 8001b08:	f85d 7b04 	ldr.w	r7, [sp], #4
 8001b0c:	4770      	bx	lr

08001b0e <usart_gtpr_configure_psc>:

void usart_gtpr_configure_psc(USART_TypeDef* type, uint16_t psc)
{
 8001b0e:	b480      	push	{r7}
 8001b10:	b083      	sub	sp, #12
 8001b12:	af00      	add	r7, sp, #0
 8001b14:	6078      	str	r0, [r7, #4]
 8001b16:	460b      	mov	r3, r1
 8001b18:	807b      	strh	r3, [r7, #2]
	type->GTPR = type->GTPR & ~(0x00FF << USART_PSC);
 8001b1a:	687b      	ldr	r3, [r7, #4]
 8001b1c:	699b      	ldr	r3, [r3, #24]
 8001b1e:	f023 02ff 	bic.w	r2, r3, #255	@ 0xff
 8001b22:	687b      	ldr	r3, [r7, #4]
 8001b24:	619a      	str	r2, [r3, #24]
	type->GTPR = type->GTPR | (psc << USART_PSC);
 8001b26:	687b      	ldr	r3, [r7, #4]
 8001b28:	699a      	ldr	r2, [r3, #24]
 8001b2a:	887b      	ldrh	r3, [r7, #2]
 8001b2c:	431a      	orrs	r2, r3
 8001b2e:	687b      	ldr	r3, [r7, #4]
 8001b30:	619a      	str	r2, [r3, #24]
}
 8001b32:	bf00      	nop
 8001b34:	370c      	adds	r7, #12
 8001b36:	46bd      	mov	sp, r7
 8001b38:	f85d 7b04 	ldr.w	r7, [sp], #4
 8001b3c:	4770      	bx	lr

08001b3e <usart_sr_check_txe>:
{
	return ((type->SR & (0x0001 << USART_LBD)) >> USART_LBD);
}

uint16_t usart_sr_check_txe(USART_TypeDef* type)
{
 8001b3e:	b480      	push	{r7}
 8001b40:	b083      	sub	sp, #12
 8001b42:	af00      	add	r7, sp, #0
 8001b44:	6078      	str	r0, [r7, #4]
	return ((type->SR & (0x0001 << USART_TXE)) >> USART_TXE);
 8001b46:	687b      	ldr	r3, [r7, #4]
 8001b48:	681b      	ldr	r3, [r3, #0]
 8001b4a:	09db      	lsrs	r3, r3, #7
 8001b4c:	b29b      	uxth	r3, r3
 8001b4e:	f003 0301 	and.w	r3, r3, #1
 8001b52:	b29b      	uxth	r3, r3
}
 8001b54:	4618      	mov	r0, r3
 8001b56:	370c      	adds	r7, #12
 8001b58:	46bd      	mov	sp, r7
 8001b5a:	f85d 7b04 	ldr.w	r7, [sp], #4
 8001b5e:	4770      	bx	lr

08001b60 <usart_sr_check_rxne>:
{
	return ((type->SR & (0x0001 << USART_TC)) >> USART_TC);
}

uint16_t usart_sr_check_rxne(USART_TypeDef* type)
{
 8001b60:	b480      	push	{r7}
 8001b62:	b083      	sub	sp, #12
 8001b64:	af00      	add	r7, sp, #0
 8001b66:	6078      	str	r0, [r7, #4]
	return ((type->SR & (0x0001 << USART_RXNE)) >> USART_RXNE);
 8001b68:	687b      	ldr	r3, [r7, #4]
 8001b6a:	681b      	ldr	r3, [r3, #0]
 8001b6c:	095b      	lsrs	r3, r3, #5
 8001b6e:	b29b      	uxth	r3, r3
 8001b70:	f003 0301 	and.w	r3, r3, #1
 8001b74:	b29b      	uxth	r3, r3
}
 8001b76:	4618      	mov	r0, r3
 8001b78:	370c      	adds	r7, #12
 8001b7a:	46bd      	mov	sp, r7
 8001b7c:	f85d 7b04 	ldr.w	r7, [sp], #4
 8001b80:	4770      	bx	lr

08001b82 <usart_dr_write>:
}

//*****************************************************USART TRANSFER FUNCTIONS***************************************

void usart_dr_write(USART_TypeDef* type, uint16_t data)
{
 8001b82:	b480      	push	{r7}
 8001b84:	b083      	sub	sp, #12
 8001b86:	af00      	add	r7, sp, #0
 8001b88:	6078      	str	r0, [r7, #4]
 8001b8a:	460b      	mov	r3, r1
 8001b8c:	807b      	strh	r3, [r7, #2]
	type->DR = data;
 8001b8e:	887a      	ldrh	r2, [r7, #2]
 8001b90:	687b      	ldr	r3, [r7, #4]
 8001b92:	605a      	str	r2, [r3, #4]
}
 8001b94:	bf00      	nop
 8001b96:	370c      	adds	r7, #12
 8001b98:	46bd      	mov	sp, r7
 8001b9a:	f85d 7b04 	ldr.w	r7, [sp], #4
 8001b9e:	4770      	bx	lr

08001ba0 <usart_dr_read>:

uint16_t usart_dr_read(USART_TypeDef* type)
{
 8001ba0:	b480      	push	{r7}
 8001ba2:	b083      	sub	sp, #12
 8001ba4:	af00      	add	r7, sp, #0
 8001ba6:	6078      	str	r0, [r7, #4]
	return type->DR;
 8001ba8:	687b      	ldr	r3, [r7, #4]
 8001baa:	685b      	ldr	r3, [r3, #4]
 8001bac:	b29b      	uxth	r3, r3
}
 8001bae:	4618      	mov	r0, r3
 8001bb0:	370c      	adds	r7, #12
 8001bb2:	46bd      	mov	sp, r7
 8001bb4:	f85d 7b04 	ldr.w	r7, [sp], #4
 8001bb8:	4770      	bx	lr

08001bba <usart_transmit>:

void usart_transmit(USART_TypeDef* type, uint16_t data)
{
 8001bba:	b580      	push	{r7, lr}
 8001bbc:	b082      	sub	sp, #8
 8001bbe:	af00      	add	r7, sp, #0
 8001bc0:	6078      	str	r0, [r7, #4]
 8001bc2:	460b      	mov	r3, r1
 8001bc4:	807b      	strh	r3, [r7, #2]
	while(usart_sr_check_txe(type) == USART_TXE_NO_TRANSFER);
 8001bc6:	bf00      	nop
 8001bc8:	6878      	ldr	r0, [r7, #4]
 8001bca:	f7ff ffb8 	bl	8001b3e <usart_sr_check_txe>
 8001bce:	4603      	mov	r3, r0
 8001bd0:	2b00      	cmp	r3, #0
 8001bd2:	d0f9      	beq.n	8001bc8 <usart_transmit+0xe>
	usart_dr_write(type, data);
 8001bd4:	887b      	ldrh	r3, [r7, #2]
 8001bd6:	4619      	mov	r1, r3
 8001bd8:	6878      	ldr	r0, [r7, #4]
 8001bda:	f7ff ffd2 	bl	8001b82 <usart_dr_write>
}
 8001bde:	bf00      	nop
 8001be0:	3708      	adds	r7, #8
 8001be2:	46bd      	mov	sp, r7
 8001be4:	bd80      	pop	{r7, pc}

08001be6 <usart_receive>:

uint16_t usart_receive(USART_TypeDef* type)
{
 8001be6:	b580      	push	{r7, lr}
 8001be8:	b082      	sub	sp, #8
 8001bea:	af00      	add	r7, sp, #0
 8001bec:	6078      	str	r0, [r7, #4]
	while(usart_sr_check_rxne(type) == USART_RXNE_NO_RECEIVED);
 8001bee:	bf00      	nop
 8001bf0:	6878      	ldr	r0, [r7, #4]
 8001bf2:	f7ff ffb5 	bl	8001b60 <usart_sr_check_rxne>
 8001bf6:	4603      	mov	r3, r0
 8001bf8:	2b00      	cmp	r3, #0
 8001bfa:	d0f9      	beq.n	8001bf0 <usart_receive+0xa>
	return usart_dr_read(type);
 8001bfc:	6878      	ldr	r0, [r7, #4]
 8001bfe:	f7ff ffcf 	bl	8001ba0 <usart_dr_read>
 8001c02:	4603      	mov	r3, r0
}
 8001c04:	4618      	mov	r0, r3
 8001c06:	3708      	adds	r7, #8
 8001c08:	46bd      	mov	sp, r7
 8001c0a:	bd80      	pop	{r7, pc}

08001c0c <usart_enable_interrupt>:

//*********************************************USART INTERRUPT HANDLING***********************************************

void usart_enable_interrupt(IRQn_Type irq)
{
 8001c0c:	b580      	push	{r7, lr}
 8001c0e:	b082      	sub	sp, #8
 8001c10:	af00      	add	r7, sp, #0
 8001c12:	4603      	mov	r3, r0
 8001c14:	71fb      	strb	r3, [r7, #7]
	NVIC_EnableIRQ(irq);
 8001c16:	f997 3007 	ldrsb.w	r3, [r7, #7]
 8001c1a:	4618      	mov	r0, r3
 8001c1c:	f7ff f97c 	bl	8000f18 <__NVIC_EnableIRQ>
}
 8001c20:	bf00      	nop
 8001c22:	3708      	adds	r7, #8
 8001c24:	46bd      	mov	sp, r7
 8001c26:	bd80      	pop	{r7, pc}

08001c28 <__libc_init_array>:
 8001c28:	b570      	push	{r4, r5, r6, lr}
 8001c2a:	4d0d      	ldr	r5, [pc, #52]	@ (8001c60 <__libc_init_array+0x38>)
 8001c2c:	4c0d      	ldr	r4, [pc, #52]	@ (8001c64 <__libc_init_array+0x3c>)
 8001c2e:	1b64      	subs	r4, r4, r5
 8001c30:	10a4      	asrs	r4, r4, #2
 8001c32:	2600      	movs	r6, #0
 8001c34:	42a6      	cmp	r6, r4
 8001c36:	d109      	bne.n	8001c4c <__libc_init_array+0x24>
 8001c38:	4d0b      	ldr	r5, [pc, #44]	@ (8001c68 <__libc_init_array+0x40>)
 8001c3a:	4c0c      	ldr	r4, [pc, #48]	@ (8001c6c <__libc_init_array+0x44>)
 8001c3c:	f000 f818 	bl	8001c70 <_init>
 8001c40:	1b64      	subs	r4, r4, r5
 8001c42:	10a4      	asrs	r4, r4, #2
 8001c44:	2600      	movs	r6, #0
 8001c46:	42a6      	cmp	r6, r4
 8001c48:	d105      	bne.n	8001c56 <__libc_init_array+0x2e>
 8001c4a:	bd70      	pop	{r4, r5, r6, pc}
 8001c4c:	f855 3b04 	ldr.w	r3, [r5], #4
 8001c50:	4798      	blx	r3
 8001c52:	3601      	adds	r6, #1
 8001c54:	e7ee      	b.n	8001c34 <__libc_init_array+0xc>
 8001c56:	f855 3b04 	ldr.w	r3, [r5], #4
 8001c5a:	4798      	blx	r3
 8001c5c:	3601      	adds	r6, #1
 8001c5e:	e7f2      	b.n	8001c46 <__libc_init_array+0x1e>
 8001c60:	08001c88 	.word	0x08001c88
 8001c64:	08001c88 	.word	0x08001c88
 8001c68:	08001c88 	.word	0x08001c88
 8001c6c:	08001c8c 	.word	0x08001c8c

08001c70 <_init>:
 8001c70:	b5f8      	push	{r3, r4, r5, r6, r7, lr}
 8001c72:	bf00      	nop
 8001c74:	bcf8      	pop	{r3, r4, r5, r6, r7}
 8001c76:	bc08      	pop	{r3}
 8001c78:	469e      	mov	lr, r3
 8001c7a:	4770      	bx	lr

08001c7c <_fini>:
 8001c7c:	b5f8      	push	{r3, r4, r5, r6, r7, lr}
 8001c7e:	bf00      	nop
 8001c80:	bcf8      	pop	{r3, r4, r5, r6, r7}
 8001c82:	bc08      	pop	{r3}
 8001c84:	469e      	mov	lr, r3
 8001c86:	4770      	bx	lr
